Archive member included because of file (symbol)

C:/Program Files/TeliumSDK/SDK 9.8.0/SDK/lib_gnu_434/eft30.lib(atoi.o)
                              Obj/GNU_ARM_DEBUG/Backlight.o (atoi)
C:/Program Files/TeliumSDK/SDK 9.8.0/SDK/lib_gnu_434/eft30.lib(extens119.o)
                              Obj/GNU_ARM_DEBUG/Dialogs.o (StateHeader)
C:/Program Files/TeliumSDK/SDK 9.8.0/SDK/lib_gnu_434/eft30.lib(extens134.o)
                              Obj/GNU_ARM_DEBUG/Dialogs.o (IsHeader)
C:/Program Files/TeliumSDK/SDK 9.8.0/SDK/lib_gnu_434/eft30.lib(extens201.o)
                              Obj/GNU_ARM_DEBUG/Dialogs.o (GetHeaderSize)
C:/Program Files/TeliumSDK/SDK 9.8.0/SDK/lib_gnu_434/eft30.lib(extens232.o)
                              Obj/GNU_ARM_DEBUG/Dialogs.o (Beep)
C:/Program Files/TeliumSDK/SDK 9.8.0/SDK/lib_gnu_434/eft30.lib(extens54.o)
                              Obj/GNU_ARM_DEBUG/NTP.o (longto_d)
C:/Program Files/TeliumSDK/SDK 9.8.0/SDK/lib_gnu_434/eft30.lib(param156.o)
                              Obj/GNU_ARM_DEBUG/Conn.o (PSQ_Give_Full_Serial_Number)
C:/Program Files/TeliumSDK/SDK 9.8.0/SDK/lib_gnu_434/eft30.lib(param17.o)
                              Obj/GNU_ARM_DEBUG/Sistema.o (PSQ_Donner_noserie)
C:/Program Files/TeliumSDK/SDK 9.8.0/SDK/lib_gnu_434/eft30.lib(param47.o)
                              Obj/GNU_ARM_DEBUG/Sistema.o (PSQ_lire_type_materiel)
C:/Program Files/TeliumSDK/SDK 9.8.0/SDK/lib_gnu_434/eft30.lib(param81.o)
                              Obj/GNU_ARM_DEBUG/Sistema.o (PSQ_Lire_Gamme_Produit)
C:/Program Files/TeliumSDK/SDK 9.8.0/SDK/lib_gnu_434/eft30.lib(saisie18.o)
                              Obj/GNU_ARM_DEBUG/Dialogs.o (G_Saisie_Etendue)
C:/Program Files/TeliumSDK/SDK 9.8.0/SDK/lib_gnu_434/eft30.lib(saisie6.o)
                              Obj/GNU_ARM_DEBUG/Dialogs.o (Read_Saisie)
C:/Program Files/TeliumSDK/SDK 9.8.0/SDK/lib_gnu_434/eft30.lib(saisie7.o)
                              Obj/GNU_ARM_DEBUG/Dialogs.o (G_Saisie_Numerique)
C:/Program Files/TeliumSDK/SDK 9.8.0/SDK/lib_gnu_434/eft30.lib(saisie8.o)
                              Obj/GNU_ARM_DEBUG/Dialogs.o (G_Saisie_Alphanumerique)
C:/Program Files/TeliumSDK/SDK 9.8.0/SDK/lib_gnu_434/eft30.lib(saisie9.o)
                              Obj/GNU_ARM_DEBUG/Menus.o (G_Saisie_Liste)
C:/Program Files/TeliumSDK/SDK 9.8.0/SDK/lib_gnu_434/eft30.lib(sv24.o)
                              Obj/GNU_ARM_DEBUG/Entry.o (SV_read_date)
C:/Program Files/TeliumSDK/SDK 9.8.0/SDK/lib_gnu_434/eft30.lib(sv25.o)
                              Obj/GNU_ARM_DEBUG/Inicio.o (SV_write_date)
C:/Program Files/TeliumSDK/SDK 9.8.0/SDK/lib_gnu_434/eft30.lib(libgr110.o)
                              Obj/GNU_ARM_DEBUG/Dialogs.o (clrscr)
C:/Program Files/TeliumSDK/SDK 9.8.0/SDK/lib_gnu_434/eft30.lib(libgr123.o)
                              Obj/GNU_ARM_DEBUG/Boleto.o (GetBmpInfos)
C:/Program Files/TeliumSDK/SDK 9.8.0/SDK/lib_gnu_434/eft30.lib(libgr137.o)
                              Obj/GNU_ARM_DEBUG/Backlight.o (PaintGraphics)
C:/Program Files/TeliumSDK/SDK 9.8.0/SDK/lib_gnu_434/eft30.lib(libgr25.o)
                              Obj/GNU_ARM_DEBUG/Dialogs.o (_DrawWindow)
C:/Program Files/TeliumSDK/SDK 9.8.0/SDK/lib_gnu_434/eft30.lib(libgr3.o)
                              Obj/GNU_ARM_DEBUG/Dialogs.o (SetFont)
C:/Program Files/TeliumSDK/SDK 9.8.0/SDK/lib_gnu_434/eft30.lib(libgr33.o)
                              Obj/GNU_ARM_DEBUG/Dialogs.o (GetScreenSize)
C:/Program Files/TeliumSDK/SDK 9.8.0/SDK/lib_gnu_434/eft30.lib(libgr35.o)
                              Obj/GNU_ARM_DEBUG/Backlight.o (_clrscr)
C:/Program Files/TeliumSDK/SDK 9.8.0/SDK/lib_gnu_434/eft30.lib(libgr37.o)
                              Obj/GNU_ARM_DEBUG/Dialogs.o (GetPoliceSize)
C:/Program Files/TeliumSDK/SDK 9.8.0/SDK/lib_gnu_434/eft30.lib(libgr41.o)
                              Obj/GNU_ARM_DEBUG/Dialogs.o (DisplayBitmap)
C:/Program Files/TeliumSDK/SDK 9.8.0/SDK/lib_gnu_434/eft30.lib(libgr49.o)
                              Obj/GNU_ARM_DEBUG/Dialogs.o (GetDefaultFont)
C:/Program Files/TeliumSDK/SDK 9.8.0/SDK/lib_gnu_434/eft30.lib(libgr50.o)
                              Obj/GNU_ARM_DEBUG/Backlight.o (_DrawExtendedString)
C:/Program Files/TeliumSDK/SDK 9.8.0/SDK/lib_gnu_434/eft30.lib(libgr52.o)
                              Obj/GNU_ARM_DEBUG/Dialogs.o (_SizeofExtendedString)
C:/Program Files/TeliumSDK/SDK 9.8.0/SDK/lib_gnu_434/eft30.lib(libgr7.o)
                              Obj/GNU_ARM_DEBUG/Dialogs.o (CreateGraphics)
C:/Program Files/TeliumSDK/SDK 9.8.0/SDK/lib_gnu_434/eft30.lib(libgr75.o)
                              Obj/GNU_ARM_DEBUG/Boleto.o (DefPrinterMargins)
C:/Program Files/TeliumSDK/SDK 9.8.0/SDK/lib_gnu_434/eft30.lib(libgr81.o)
                              Obj/GNU_ARM_DEBUG/Boleto.o (_PrintBmpXY)
C:/Program Files/TeliumSDK/SDK 9.8.0/SDK/lib_gnu_434/eft30.lib(libgr82.o)
                              Obj/GNU_ARM_DEBUG/Boleto.o (PaintPrinterGraphics)
C:/Program Files/TeliumSDK/SDK 9.8.0/SDK/lib_gnu_434/eft30.lib(libgr83.o)
                              Obj/GNU_ARM_DEBUG/Boleto.o (InitPrinterBitmap)
C:/Program Files/TeliumSDK/SDK 9.8.0/SDK/lib_gnu_434/eft30.lib(Tools35.o)
                              C:/Program Files/TeliumSDK/SDK 9.8.0/SDK/lib_gnu_434/eft30.lib(sv24.o) (TM_read_date)
C:/Program Files/TeliumSDK/SDK 9.8.0/SDK/lib_gnu_434/eft30.lib(Tools36.o)
                              C:/Program Files/TeliumSDK/SDK 9.8.0/SDK/lib_gnu_434/eft30.lib(sv25.o) (TM_write_date)
C:/Program Files/TeliumSDK/SDK 9.8.0/SDK/lib_gnu_434/eft30.lib(gprs1.o)
                              Obj/GNU_ARM_DEBUG/GPRS.o (gprs_connect)
C:/Program Files/TeliumSDK/SDK 9.8.0/SDK/lib_gnu_434/eft30.lib(gprs11.o)
                              Obj/GNU_ARM_DEBUG/HTTP.o (tcp_connect_to_server)
C:/Program Files/TeliumSDK/SDK 9.8.0/SDK/lib_gnu_434/eft30.lib(gprs13.o)
                              Obj/GNU_ARM_DEBUG/HTTP.o (tcp_send_to_server)
C:/Program Files/TeliumSDK/SDK 9.8.0/SDK/lib_gnu_434/eft30.lib(gprs15.o)
                              Obj/GNU_ARM_DEBUG/HTTP.o (tcp_recv_from_server)
C:/Program Files/TeliumSDK/SDK 9.8.0/SDK/lib_gnu_434/eft30.lib(gprs17.o)
                              Obj/GNU_ARM_DEBUG/HTTP.o (tcp_disconnect_from_server)
C:/Program Files/TeliumSDK/SDK 9.8.0/SDK/lib_gnu_434/eft30.lib(gprs19.o)
                              Obj/GNU_ARM_DEBUG/GPRS.o (gprs_stop)
C:/Program Files/TeliumSDK/SDK 9.8.0/SDK/lib_gnu_434/eft30.lib(gprs29.o)
                              Obj/GNU_ARM_DEBUG/GPRS.o (gprs_enable)
C:/Program Files/TeliumSDK/SDK 9.8.0/SDK/lib_gnu_434/eft30.lib(gprs32.o)
                              Obj/GNU_ARM_DEBUG/Menus.o (gprs_ppp_disconnect)
C:/Program Files/TeliumSDK/SDK 9.8.0/SDK/lib_gnu_434/eft30.lib(hwcnf18.o)
                              Obj/GNU_ARM_DEBUG/Backlight.o (HWCNF_SetBacklightLevelEx)
C:/Program Files/TeliumSDK/SDK 9.8.0/SDK/lib_gnu_434/eft30.lib(gprs_lib.o)
                              Obj/GNU_ARM_DEBUG/GPRS.o (gprs_IsNetworkAvailable)
C:/Program Files/TeliumSDK/SDK 9.8.0/SDK/lib_gnu_434/eft30.lib(LibAppli.o)
                              Obj/GNU_ARM_DEBUG/Entry.o (printf)
C:/Program Files/TeliumSDK/SDK 9.8.0/SDK/lib_gnu_434/eft30.lib(ctype.o)
                              C:/Program Files/TeliumSDK/SDK 9.8.0/SDK/lib_gnu_434/eft30.lib(atoi.o) (isspace)
C:/Program Files/TeliumSDK/SDK 9.8.0/SDK/lib_gnu_434/eft30.lib(extens.o)
                              C:/Program Files/TeliumSDK/SDK 9.8.0/SDK/lib_gnu_434/eft30.lib(extens119.o) (extenslib_open)
C:/Program Files/TeliumSDK/SDK 9.8.0/SDK/lib_gnu_434/eft30.lib(extens236.o)
                              C:/Program Files/TeliumSDK/SDK 9.8.0/SDK/lib_gnu_434/eft30.lib(libgr33.o) (TM_GetScreenSize)
C:/Program Files/TeliumSDK/SDK 9.8.0/SDK/lib_gnu_434/eft30.lib(extens237.o)
                              C:/Program Files/TeliumSDK/SDK 9.8.0/SDK/lib_gnu_434/eft30.lib(libgr7.o) (TM_CreateGraphics)
C:/Program Files/TeliumSDK/SDK 9.8.0/SDK/lib_gnu_434/eft30.lib(param.o)
                              C:/Program Files/TeliumSDK/SDK 9.8.0/SDK/lib_gnu_434/eft30.lib(param156.o) (paramlib_open)
C:/Program Files/TeliumSDK/SDK 9.8.0/SDK/lib_gnu_434/eft30.lib(saisie.o)
                              C:/Program Files/TeliumSDK/SDK 9.8.0/SDK/lib_gnu_434/eft30.lib(saisie18.o) (saisielib_open)
C:/Program Files/TeliumSDK/SDK 9.8.0/SDK/lib_gnu_434/eft30.lib(sv.o)
                              C:/Program Files/TeliumSDK/SDK 9.8.0/SDK/lib_gnu_434/eft30.lib(sv24.o) (svlib_open)
C:/Program Files/TeliumSDK/SDK 9.8.0/SDK/lib_gnu_434/eft30.lib(libgr.o)
                              C:/Program Files/TeliumSDK/SDK 9.8.0/SDK/lib_gnu_434/eft30.lib(libgr110.o) (libgrlib_open)
C:/Program Files/TeliumSDK/SDK 9.8.0/SDK/lib_gnu_434/eft30.lib(Tools.o)
                              C:/Program Files/TeliumSDK/SDK 9.8.0/SDK/lib_gnu_434/eft30.lib(Tools35.o) (toolslib_open)
C:/Program Files/TeliumSDK/SDK 9.8.0/SDK/lib_gnu_434/eft30.lib(gprs.o)
                              C:/Program Files/TeliumSDK/SDK 9.8.0/SDK/lib_gnu_434/eft30.lib(gprs1.o) (gprslib_open)
C:/Program Files/TeliumSDK/SDK 9.8.0/SDK/lib_gnu_434/eft30.lib(hwcnf.o)
                              C:/Program Files/TeliumSDK/SDK 9.8.0/SDK/lib_gnu_434/eft30.lib(hwcnf18.o) (hwcnflib_open)
C:/Program Files/TeliumSDK/SDK 9.8.0/SDK/lib_gnu_434/trap.lib(trap_1302___STDOUT.o)
                              Obj/GNU_ARM_DEBUG/Entry.o (__STDOUT)
C:/Program Files/TeliumSDK/SDK 9.8.0/SDK/lib_gnu_434/trap.lib(trap_1313_fclose.o)
                              Obj/GNU_ARM_DEBUG/Backlight.o (fclose)
C:/Program Files/TeliumSDK/SDK 9.8.0/SDK/lib_gnu_434/trap.lib(trap_1314_fopen.o)
                              Obj/GNU_ARM_DEBUG/Backlight.o (fopen)
C:/Program Files/TeliumSDK/SDK 9.8.0/SDK/lib_gnu_434/trap.lib(trap_1319_getc.o)
                              Obj/GNU_ARM_DEBUG/Backlight.o (getc)
C:/Program Files/TeliumSDK/SDK 9.8.0/SDK/lib_gnu_434/trap.lib(trap_131B___STDIN.o)
                              Obj/GNU_ARM_DEBUG/Backlight.o (__STDIN)
C:/Program Files/TeliumSDK/SDK 9.8.0/SDK/lib_gnu_434/trap.lib(trap_131E_status.o)
                              Obj/GNU_ARM_DEBUG/Boleto.o (status)
C:/Program Files/TeliumSDK/SDK 9.8.0/SDK/lib_gnu_434/trap.lib(trap_1323__vfprintf.o)
                              C:/Program Files/TeliumSDK/SDK 9.8.0/SDK/lib_gnu_434/eft30.lib(LibAppli.o) (_vfprintf)
C:/Program Files/TeliumSDK/SDK 9.8.0/SDK/lib_gnu_434/trap.lib(trap_1324_vsprintf.o)
                              C:/Program Files/TeliumSDK/SDK 9.8.0/SDK/lib_gnu_434/eft30.lib(LibAppli.o) (vsprintf)
C:/Program Files/TeliumSDK/SDK 9.8.0/SDK/lib_gnu_434/trap.lib(trap_1328_putc.o)
                              C:/Program Files/TeliumSDK/SDK 9.8.0/SDK/lib_gnu_434/eft30.lib(LibAppli.o) (putc)
C:/Program Files/TeliumSDK/SDK 9.8.0/SDK/lib_gnu_434/trap.lib(trap_1329_ttestall.o)
                              Obj/GNU_ARM_DEBUG/Backlight.o (ttestall)
C:/Program Files/TeliumSDK/SDK 9.8.0/SDK/lib_gnu_434/trap.lib(trap_132C_FormatOem.o)
                              C:/Program Files/TeliumSDK/SDK 9.8.0/SDK/lib_gnu_434/eft30.lib(LibAppli.o) (FormatOem)
C:/Program Files/TeliumSDK/SDK 9.8.0/SDK/lib_gnu_434/trap.lib(trap_1348_ObjectGetInfo.o)
                              Obj/GNU_ARM_DEBUG/Entry.o (ObjectGetInfo)
C:/Program Files/TeliumSDK/SDK 9.8.0/SDK/lib_gnu_434/trap.lib(trap_1349_ObjectLoad.o)
                              C:/Program Files/TeliumSDK/SDK 9.8.0/SDK/lib_gnu_434/eft30.lib(extens.o) (ObjectLoad)
C:/Program Files/TeliumSDK/SDK 9.8.0/SDK/lib_gnu_434/trap.lib(trap_134B_FreeSpace.o)
                              Obj/GNU_ARM_DEBUG/FTP.o (FreeSpace)
C:/Program Files/TeliumSDK/SDK 9.8.0/SDK/lib_gnu_434/trap.lib(trap_134D_ServiceRegister.o)
                              Obj/GNU_ARM_DEBUG/Entry.o (ServiceRegister)
C:/Program Files/TeliumSDK/SDK 9.8.0/SDK/lib_gnu_434/trap.lib(trap_1350_DllLink.o)
                              C:/Program Files/TeliumSDK/SDK 9.8.0/SDK/lib_gnu_434/eft30.lib(extens.o) (DllLink)
C:/Program Files/TeliumSDK/SDK 9.8.0/SDK/lib_gnu_434/trap.lib(trap_1352_DllUnlink.o)
                              C:/Program Files/TeliumSDK/SDK 9.8.0/SDK/lib_gnu_434/eft30.lib(extens.o) (DllUnlink)
C:/Program Files/TeliumSDK/SDK 9.8.0/SDK/lib_gnu_434/trap.lib(trap_1356_stdperif.o)
                              Obj/GNU_ARM_DEBUG/Sistema.o (stdperif)
C:/Program Files/TeliumSDK/SDK 9.8.0/SDK/lib_gnu_434/trap.lib(trap_1375_download.o)
                              C:/Program Files/TeliumSDK/SDK 9.8.0/SDK/lib_gnu_434/eft30.lib(LibAppli.o) (download)
C:/Program Files/TeliumSDK/SDK 9.8.0/SDK/lib_gnu_434/trap.lib(trap_1378_OEM_exit.o)
                              Obj/GNU_ARM_DEBUG/Menus.o (OEM_exit)
C:/Program Files/TeliumSDK/SDK 9.8.0/SDK/lib_gnu_434/trap.lib(trap_137B_is_iso2.o)
                              Obj/GNU_ARM_DEBUG/Menus.o (is_iso2)
C:/Program Files/TeliumSDK/SDK 9.8.0/SDK/lib_gnu_434/trap.lib(trap_1386_upload_diagnostic_txt.o)
                              Obj/GNU_ARM_DEBUG/GPRS.o (upload_diagnostic_txt)
C:/Program Files/TeliumSDK/SDK 9.8.0/SDK/lib_gnu_434/trap.lib(trap_138B_FS_dskcreate.o)
                              Obj/GNU_ARM_DEBUG/FTP.o (FS_dskcreate)
C:/Program Files/TeliumSDK/SDK 9.8.0/SDK/lib_gnu_434/trap.lib(trap_138C_FS_dskkill.o)
                              Obj/GNU_ARM_DEBUG/FTP.o (FS_dskkill)
C:/Program Files/TeliumSDK/SDK 9.8.0/SDK/lib_gnu_434/trap.lib(trap_138D_FS_mount.o)
                              Obj/GNU_ARM_DEBUG/Boleto.o (FS_mount)
C:/Program Files/TeliumSDK/SDK 9.8.0/SDK/lib_gnu_434/trap.lib(trap_138E_FS_unmount.o)
                              Obj/GNU_ARM_DEBUG/Boleto.o (FS_unmount)
C:/Program Files/TeliumSDK/SDK 9.8.0/SDK/lib_gnu_434/trap.lib(trap_1399_FS_unlink.o)
                              Obj/GNU_ARM_DEBUG/File.o (FS_unlink)
C:/Program Files/TeliumSDK/SDK 9.8.0/SDK/lib_gnu_434/trap.lib(trap_139B_FS_open.o)
                              Obj/GNU_ARM_DEBUG/Boleto.o (FS_open)
C:/Program Files/TeliumSDK/SDK 9.8.0/SDK/lib_gnu_434/trap.lib(trap_139C_FS_close.o)
                              Obj/GNU_ARM_DEBUG/Entry.o (FS_close)
C:/Program Files/TeliumSDK/SDK 9.8.0/SDK/lib_gnu_434/trap.lib(trap_139D_FS_read.o)
                              Obj/GNU_ARM_DEBUG/Boleto.o (FS_read)
C:/Program Files/TeliumSDK/SDK 9.8.0/SDK/lib_gnu_434/trap.lib(trap_139E_FS_write.o)
                              Obj/GNU_ARM_DEBUG/File.o (FS_write)
C:/Program Files/TeliumSDK/SDK 9.8.0/SDK/lib_gnu_434/trap.lib(trap_13A1_FS_length.o)
                              Obj/GNU_ARM_DEBUG/Boleto.o (FS_length)
C:/Program Files/TeliumSDK/SDK 9.8.0/SDK/lib_gnu_434/trap.lib(trap_13AB_first_init.o)
                              Obj/GNU_ARM_DEBUG/Entry.o (first_init)
C:/Program Files/TeliumSDK/SDK 9.8.0/SDK/lib_gnu_434/trap.lib(trap_13AD_raz_init.o)
                              Obj/GNU_ARM_DEBUG/Entry.o (raz_init)
C:/Program Files/TeliumSDK/SDK 9.8.0/SDK/lib_gnu_434/trap.lib(trap_13B2_ApplicationGetCurrent.o)
                              Obj/GNU_ARM_DEBUG/Entry.o (ApplicationGetCurrent)
C:/Program Files/TeliumSDK/SDK 9.8.0/SDK/lib_gnu_434/trap.lib(trap_13C2_InitGkDrv.o)
                              C:/Program Files/TeliumSDK/SDK 9.8.0/SDK/lib_gnu_434/eft30.lib(LibAppli.o) (InitGkDrv)
C:/Program Files/TeliumSDK/SDK 9.8.0/SDK/lib_gnu_434/trap.lib(trap_13C4_SoftwareActivate.o)
                              Obj/GNU_ARM_DEBUG/FTP.o (SoftwareActivate)
C:/Program Files/TeliumSDK/SDK 9.8.0/SDK/lib_gnu_434/trap.lib(trap_13CE_closesocket.o)
                              Obj/GNU_ARM_DEBUG/HTTP.o (closesocket)
C:/Program Files/TeliumSDK/SDK 9.8.0/SDK/lib_gnu_434/trap.lib(trap_13CF_connect.o)
                              Obj/GNU_ARM_DEBUG/HTTP.o (connect)
C:/Program Files/TeliumSDK/SDK 9.8.0/SDK/lib_gnu_434/trap.lib(trap_13D7_socket.o)
                              Obj/GNU_ARM_DEBUG/HTTP.o (socket)
C:/Program Files/TeliumSDK/SDK 9.8.0/SDK/lib_gnu_434/trap.lib(trap_1406_umalloc.o)
                              Obj/GNU_ARM_DEBUG/Boleto.o (umalloc)
C:/Program Files/TeliumSDK/SDK 9.8.0/SDK/lib_gnu_434/trap.lib(trap_1407_ufree.o)
                              Obj/GNU_ARM_DEBUG/Boleto.o (ufree)
C:/Program Files/TeliumSDK/SDK 9.8.0/SDK/lib_gnu_434/trap.lib(trap_1414_fioctl.o)
                              Obj/GNU_ARM_DEBUG/Sistema.o (fioctl)
C:/Program Files/TeliumSDK/SDK 9.8.0/SDK/lib_gnu_434/trap.lib(trap_142A_urealloc.o)
                              Obj/GNU_ARM_DEBUG/HTTP.o (urealloc)
C:/Program Files/TeliumSDK/SDK 9.8.0/SDK/lib_gnu_434/trap.lib(trap_1432_SystemFioctl.o)
                              Obj/GNU_ARM_DEBUG/__ing_getRand_dateXORSerial.o (SystemFioctl)
C:/Program Files/TeliumSDK/SDK 9.8.0/SDK/lib_gnu_434/LinkLayerExeInterface.lib(LinkLayerServices.o)
                              Obj/GNU_ARM_DEBUG/GPRS.o (LL_GPRS_Stop)
C:/Program Files/TeliumSDK/SDK 9.8.0/SDK/lib_gnu_434/FTP_.lib(FTP.o)
                              Obj/GNU_ARM_DEBUG/FTP.o (FTP_Get)
C:/Program Files/TeliumSDK/SDK 9.8.0/SDK/lib_gnu_434/FTP_.lib(FTPC.o)
                              C:/Program Files/TeliumSDK/SDK 9.8.0/SDK/lib_gnu_434/FTP_.lib(FTP.o) (FtpcSSLGetHandles)
C:/Program Files/TeliumSDK/SDK 9.8.0/SDK/lib_gnu_434/IP_.lib(IP.o)
                              Obj/GNU_ARM_DEBUG/HTTP.o (setsockopt)
C:/Program Files/TeliumSDK/SDK 9.8.0/SDK/lib_gnu_434/IP_.lib(DNS.o)
                              Obj/GNU_ARM_DEBUG/Conn.o (DNS_GetIpAddress)
C:/Program Files/TeliumSDK/SDK 9.8.0/SDK/lib_gnu_434/IP_.lib(DefaultOptions.o)
                              Obj/GNU_ARM_DEBUG/Conn.o (__SaveDefaultOptions)
C:/Program Files/TeliumSDK/SDK 9.8.0/SDK/lib_gnu_434/IP_.lib(EthernetConfig.o)
                              C:/Program Files/TeliumSDK/SDK 9.8.0/SDK/lib_gnu_434/IP_.lib(DefaultOptions.o) (ethernet_conf_save)
C:/Program Files/TeliumSDK/SDK 9.8.0/SDK/lib_gnu_434/IP_.lib(WifiConfig.o)
                              C:/Program Files/TeliumSDK/SDK 9.8.0/SDK/lib_gnu_434/IP_.lib(DefaultOptions.o) (wifi_conf_init)
C:/Program Files/TeliumSDK/SDK 9.8.0/SDK/lib_gnu_434/eft30.lib(extens280.o)
                              C:/Program Files/TeliumSDK/SDK 9.8.0/SDK/lib_gnu_434/LinkLayerExeInterface.lib(LinkLayerServices.o) (USR_ServiceCall)
C:/Program Files/TeliumSDK/SDK 9.8.0/SDK/lib_gnu_434/trap.lib(trap_13D8_inet_addr.o)
                              C:/Program Files/TeliumSDK/SDK 9.8.0/SDK/lib_gnu_434/IP_.lib(IP.o) (inet_addr)
C:/Program Files/TeliumSDK/SDK 9.8.0/SDK/lib_gnu_434/trap.lib(trap_13DC_PppSetOption.o)
                              C:/Program Files/TeliumSDK/SDK 9.8.0/SDK/lib_gnu_434/IP_.lib(IP.o) (PppSetOption)
C:/Program Files/TeliumSDK/SDK 9.8.0/SDK/lib_gnu_434/trap.lib(trap_13E1_fcntlsocketSWI.o)
                              C:/Program Files/TeliumSDK/SDK 9.8.0/SDK/lib_gnu_434/IP_.lib(IP.o) (fcntlsocketSWI)
C:/Program Files/TeliumSDK/SDK 9.8.0/SDK/lib_gnu_434/trap.lib(trap_13E2_getsockoptSWI.o)
                              C:/Program Files/TeliumSDK/SDK 9.8.0/SDK/lib_gnu_434/IP_.lib(IP.o) (getsockoptSWI)
C:/Program Files/TeliumSDK/SDK 9.8.0/SDK/lib_gnu_434/trap.lib(trap_13E3_recvfromSWI.o)
                              C:/Program Files/TeliumSDK/SDK 9.8.0/SDK/lib_gnu_434/IP_.lib(IP.o) (recvfromSWI)
C:/Program Files/TeliumSDK/SDK 9.8.0/SDK/lib_gnu_434/trap.lib(trap_13E4_selectsocketSWI.o)
                              C:/Program Files/TeliumSDK/SDK 9.8.0/SDK/lib_gnu_434/IP_.lib(IP.o) (selectsocketSWI)
C:/Program Files/TeliumSDK/SDK 9.8.0/SDK/lib_gnu_434/trap.lib(trap_13E5_sendtoSWI.o)
                              C:/Program Files/TeliumSDK/SDK 9.8.0/SDK/lib_gnu_434/IP_.lib(IP.o) (sendtoSWI)
C:/Program Files/TeliumSDK/SDK 9.8.0/SDK/lib_gnu_434/trap.lib(trap_13E6_setsockoptSWI.o)
                              C:/Program Files/TeliumSDK/SDK 9.8.0/SDK/lib_gnu_434/IP_.lib(IP.o) (setsockoptSWI)
C:/Program Files/TeliumSDK/SDK 9.8.0/SDK/lib_gnu_434/trap.lib(trap_13E7_ngOSGetErrno.o)
                              C:/Program Files/TeliumSDK/SDK 9.8.0/SDK/lib_gnu_434/IP_.lib(IP.o) (ngOSGetErrno)
C:/Program Files/TeliumSDK/SDK 9.8.0/SDK/lib_gnu_434/trap.lib(trap_13E8_ngOSSetErrno.o)
                              C:/Program Files/TeliumSDK/SDK 9.8.0/SDK/lib_gnu_434/IP_.lib(IP.o) (ngOSSetErrno)
C:/Program Files/TeliumSDK/SDK 9.8.0/SDK/lib_gnu_434/trap.lib(trap_13E9_ngResolvSetOption.o)
                              C:/Program Files/TeliumSDK/SDK 9.8.0/SDK/lib_gnu_434/IP_.lib(IP.o) (ngResolvSetOption)
C:/Program Files/TeliumSDK/SDK 9.8.0/SDK/lib_gnu_434/trap.lib(trap_13EA_ngResolvGetOption.o)
                              C:/Program Files/TeliumSDK/SDK 9.8.0/SDK/lib_gnu_434/IP_.lib(IP.o) (ngResolvGetOption)
C:/Program Files/TeliumSDK/SDK 9.8.0/SDK/lib_gnu_434/trap.lib(trap_13ED_gethostbyaddr_rSWI.o)
                              C:/Program Files/TeliumSDK/SDK 9.8.0/SDK/lib_gnu_434/IP_.lib(IP.o) (gethostbyaddr_rSWI)
C:/Program Files/TeliumSDK/SDK 9.8.0/SDK/lib_gnu_434/trap.lib(trap_13EE_gethostbyname_rSWI.o)
                              C:/Program Files/TeliumSDK/SDK 9.8.0/SDK/lib_gnu_434/IP_.lib(IP.o) (gethostbyname_rSWI)
C:/Program Files/TeliumSDK/SDK 9.8.0/SDK/lib_gnu_434/trap.lib(trap_141D_ngRouteAdd.o)
                              C:/Program Files/TeliumSDK/SDK 9.8.0/SDK/lib_gnu_434/IP_.lib(IP.o) (ngRouteAdd)
C:/Program Files/TeliumSDK/SDK 9.8.0/SDK/lib_gnu_434/trap.lib(trap_141E_ngRouteDelete.o)
                              C:/Program Files/TeliumSDK/SDK 9.8.0/SDK/lib_gnu_434/IP_.lib(IP.o) (ngRouteDelete)
C:/Program Files/TeliumSDK/SDK 9.8.0/SDK/lib_gnu_434/trap.lib(trap_141F_ngRouteDefault.o)
                              C:/Program Files/TeliumSDK/SDK 9.8.0/SDK/lib_gnu_434/IP_.lib(IP.o) (ngRouteDefault)
C:/Program Files/TeliumSDK/SDK 9.8.0/SDK/lib_gnu_434/trap.lib(trap_1426_get_tick_counter.o)
                              C:/Program Files/TeliumSDK/SDK 9.8.0/SDK/lib_gnu_434/IP_.lib(IP.o) (get_tick_counter)
C:/Program Files/TeliumSDK/SDK 9.8.0/SDK/lib_gnu_434/trap.lib(trap_142B_EthIfControl.o)
                              C:/Program Files/TeliumSDK/SDK 9.8.0/SDK/lib_gnu_434/IP_.lib(IP.o) (EthIfControl)
C:/Program Files/TeliumSDK/SDK 9.8.0/SDK/lib_gnu_434/AVL.lib(Proxy.o)
                              C:/Program Files/TeliumSDK/SDK 9.8.0/SDK/lib_gnu_434/LinkLayerExeInterface.lib(LinkLayerServices.o) (TlvTree_Unserialize)
C:/Program Files/TeliumSDK/SDK 9.8.0/SDK/lib_gnu_434/AVL.lib(Serializer.o)
                              C:/Program Files/TeliumSDK/SDK 9.8.0/SDK/lib_gnu_434/AVL.lib(Proxy.o) (__TlvTree_GetSerializationSize)
C:/Program Files/TeliumSDK/SDK 9.8.0/SDK/lib_gnu_434/AVL.lib(Serializer_Default.o)
                              C:/Program Files/TeliumSDK/SDK 9.8.0/SDK/lib_gnu_434/AVL.lib(Serializer.o) (__TlvTree_Unserialize_Default)
C:/Program Files/TeliumSDK/SDK 9.8.0/SDK/lib_gnu_434/AVL.lib(Serializer_Xml.o)
                              C:/Program Files/TeliumSDK/SDK 9.8.0/SDK/lib_gnu_434/AVL.lib(Serializer.o) (__TlvTree_Unserialize_Xml)
C:/Program Files/TeliumSDK/SDK 9.8.0/SDK/lib_gnu_434/AVL.lib(XMLs_ProcessData.o)
                              C:/Program Files/TeliumSDK/SDK 9.8.0/SDK/lib_gnu_434/AVL.lib(Serializer_Xml.o) (XMLs_ProcessData)
C:/Program Files/TeliumSDK/SDK 9.8.0/SDK/lib_gnu_434/AVL.lib(XMLs_Common.o)
                              C:/Program Files/TeliumSDK/SDK 9.8.0/SDK/lib_gnu_434/AVL.lib(Serializer_Xml.o) (XMLs_Abort)
C:/Program Files/TeliumSDK/SDK 9.8.0/SDK/lib_gnu_434/AVL.lib(XMLs_Deprecated.o)
                              C:/Program Files/TeliumSDK/SDK 9.8.0/SDK/lib_gnu_434/AVL.lib(Serializer_Xml.o) (XMLs_Parse)
C:/Program Files/TeliumSDK/SDK 9.8.0/SDK/lib_gnu_434/AVL.lib(XMLs_Parser_Deprecated.o)
                              C:/Program Files/TeliumSDK/SDK 9.8.0/SDK/lib_gnu_434/AVL.lib(XMLs_Deprecated.o) (XMLgr_Document_Deprecated)
C:/Program Files/TeliumSDK/SDK 9.8.0/SDK/lib_gnu_434/AVL.lib(Internal.o)
                              C:/Program Files/TeliumSDK/SDK 9.8.0/SDK/lib_gnu_434/AVL.lib(Proxy.o) (__TlvTree_SetTag)
C:/Program Files/TeliumSDK/SDK 9.8.0/SDK/lib_gnu_434/dll_wifi.lib(wifi.o)
                              C:/Program Files/TeliumSDK/SDK 9.8.0/SDK/lib_gnu_434/IP_.lib(DefaultOptions.o) (wifilib_open)
C:/Program Files/TeliumSDK/SDK 9.8.0/SDK/lib_gnu_434/dll_wifi.lib(wifi1.o)
                              C:/Program Files/TeliumSDK/SDK 9.8.0/SDK/lib_gnu_434/IP_.lib(DefaultOptions.o) (Wifi_IsDevicePresent)
C:/Program Files/TeliumSDK/SDK 9.8.0/SDK/lib_gnu_434/dll_wifi.lib(wifi2.o)
                              C:/Program Files/TeliumSDK/SDK 9.8.0/SDK/lib_gnu_434/dll_wifi.lib(wifi.o) (_Wifi_IsConnected)
C:/Program Files/TeliumSDK/SDK 9.8.0/SDK/lib_gnu_434/dll_wifi.lib(wifi3.o)
                              C:/Program Files/TeliumSDK/SDK 9.8.0/SDK/lib_gnu_434/dll_wifi.lib(wifi.o) (_Wifi_Essid)
C:/Program Files/TeliumSDK/SDK 9.8.0/SDK/lib_gnu_434/dll_wifi.lib(wifi4.o)
                              C:/Program Files/TeliumSDK/SDK 9.8.0/SDK/lib_gnu_434/dll_wifi.lib(wifi.o) (_Wifi_Bssid)
C:/Program Files/TeliumSDK/SDK 9.8.0/SDK/lib_gnu_434/dll_wifi.lib(wifi5.o)
                              C:/Program Files/TeliumSDK/SDK 9.8.0/SDK/lib_gnu_434/dll_wifi.lib(wifi.o) (_Wifi_RSSI)
C:/Program Files/TeliumSDK/SDK 9.8.0/SDK/lib_gnu_434/dll_wifi.lib(wifi6.o)
                              C:/Program Files/TeliumSDK/SDK 9.8.0/SDK/lib_gnu_434/dll_wifi.lib(wifi.o) (_Wifi_SignalIndication)
C:/Program Files/TeliumSDK/SDK 9.8.0/SDK/lib_gnu_434/dll_wifi.lib(wifi7.o)
                              C:/Program Files/TeliumSDK/SDK 9.8.0/SDK/lib_gnu_434/IP_.lib(WifiConfig.o) (Wifi_GetMacAddress)
C:/Program Files/TeliumSDK/SDK 9.8.0/SDK/lib_gnu_434/dll_wifi.lib(wifi8.o)
                              C:/Program Files/TeliumSDK/SDK 9.8.0/SDK/lib_gnu_434/IP_.lib(WifiConfig.o) (Wifi_GetIpAddress)
C:/Program Files/TeliumSDK/SDK 9.8.0/SDK/lib_gnu_434/dll_wifi.lib(wifi9.o)
                              C:/Program Files/TeliumSDK/SDK 9.8.0/SDK/lib_gnu_434/IP_.lib(WifiConfig.o) (Wifi_GetNetmask)
C:/Program Files/TeliumSDK/SDK 9.8.0/SDK/lib_gnu_434/dll_wifi.lib(wifi10.o)
                              C:/Program Files/TeliumSDK/SDK 9.8.0/SDK/lib_gnu_434/IP_.lib(WifiConfig.o) (Wifi_GetDNS1)
C:/Program Files/TeliumSDK/SDK 9.8.0/SDK/lib_gnu_434/dll_wifi.lib(wifi11.o)
                              C:/Program Files/TeliumSDK/SDK 9.8.0/SDK/lib_gnu_434/IP_.lib(WifiConfig.o) (Wifi_GetDNS2)
C:/Program Files/TeliumSDK/SDK 9.8.0/SDK/lib_gnu_434/dll_wifi.lib(wifi12.o)
                              C:/Program Files/TeliumSDK/SDK 9.8.0/SDK/lib_gnu_434/IP_.lib(WifiConfig.o) (Wifi_GetBootproto)
C:/Program Files/TeliumSDK/SDK 9.8.0/SDK/lib_gnu_434/dll_wifi.lib(wifi13.o)
                              C:/Program Files/TeliumSDK/SDK 9.8.0/SDK/lib_gnu_434/IP_.lib(WifiConfig.o) (Wifi_GetDHCPGateway)
C:/Program Files/TeliumSDK/SDK 9.8.0/SDK/lib_gnu_434/dll_wifi.lib(wifi14.o)
                              C:/Program Files/TeliumSDK/SDK 9.8.0/SDK/lib_gnu_434/IP_.lib(WifiConfig.o) (Wifi_GetDHCPDNS)
C:/Program Files/TeliumSDK/SDK 9.8.0/SDK/lib_gnu_434/dll_wifi.lib(wifi15.o)
                              C:/Program Files/TeliumSDK/SDK 9.8.0/SDK/lib_gnu_434/dll_wifi.lib(wifi.o) (_Wifi_ProfileAdd)
C:/Program Files/TeliumSDK/SDK 9.8.0/SDK/lib_gnu_434/dll_wifi.lib(wifi16.o)
                              C:/Program Files/TeliumSDK/SDK 9.8.0/SDK/lib_gnu_434/dll_wifi.lib(wifi.o) (_Wifi_ProfileSetActive)
C:/Program Files/TeliumSDK/SDK 9.8.0/SDK/lib_gnu_434/dll_wifi.lib(wifi17.o)
                              C:/Program Files/TeliumSDK/SDK 9.8.0/SDK/lib_gnu_434/dll_wifi.lib(wifi.o) (_Wifi_ProfileModify)
C:/Program Files/TeliumSDK/SDK 9.8.0/SDK/lib_gnu_434/dll_wifi.lib(wifi18.o)
                              C:/Program Files/TeliumSDK/SDK 9.8.0/SDK/lib_gnu_434/dll_wifi.lib(wifi.o) (_Wifi_ProfileRemove)
C:/Program Files/TeliumSDK/SDK 9.8.0/SDK/lib_gnu_434/dll_wifi.lib(wifi19.o)
                              C:/Program Files/TeliumSDK/SDK 9.8.0/SDK/lib_gnu_434/dll_wifi.lib(wifi.o) (_Wifi_AccessPointScan)
C:/Program Files/TeliumSDK/SDK 9.8.0/SDK/lib_gnu_434/dll_wifi.lib(wifi20.o)
                              C:/Program Files/TeliumSDK/SDK 9.8.0/SDK/lib_gnu_434/dll_wifi.lib(wifi.o) (_Wifi_AccessPointList)
C:/Program Files/TeliumSDK/SDK 9.8.0/SDK/lib_gnu_434/dll_wifi.lib(wifi21.o)
                              C:/Program Files/TeliumSDK/SDK 9.8.0/SDK/lib_gnu_434/dll_wifi.lib(wifi.o) (_Wifi_ProfileGetList)
C:/Program Files/TeliumSDK/SDK 9.8.0/SDK/lib_gnu_434/dll_wifi.lib(wifi22.o)
                              C:/Program Files/TeliumSDK/SDK 9.8.0/SDK/lib_gnu_434/dll_wifi.lib(wifi.o) (_Wifi_GetKeepAlive)
C:/Program Files/TeliumSDK/SDK 9.8.0/SDK/lib_gnu_434/dll_wifi.lib(wifi23.o)
                              C:/Program Files/TeliumSDK/SDK 9.8.0/SDK/lib_gnu_434/dll_wifi.lib(wifi.o) (_Wifi_SetKeepAlive)
C:/Program Files/TeliumSDK/SDK 9.8.0/SDK/lib_gnu_434/dll_wifi.lib(wifi24.o)
                              C:/Program Files/TeliumSDK/SDK 9.8.0/SDK/lib_gnu_434/dll_wifi.lib(wifi.o) (_Wifi_GetScanResults)
C:/Program Files/TeliumSDK/SDK 9.8.0/SDK/lib_gnu_434/dll_wifi.lib(wifi25.o)
                              C:/Program Files/TeliumSDK/SDK 9.8.0/SDK/lib_gnu_434/IP_.lib(WifiConfig.o) (Wifi_SetIpAddress)
C:/Program Files/TeliumSDK/SDK 9.8.0/SDK/lib_gnu_434/dll_wifi.lib(wifi26.o)
                              C:/Program Files/TeliumSDK/SDK 9.8.0/SDK/lib_gnu_434/IP_.lib(WifiConfig.o) (Wifi_SetNetmask)
C:/Program Files/TeliumSDK/SDK 9.8.0/SDK/lib_gnu_434/dll_wifi.lib(wifi27.o)
                              C:/Program Files/TeliumSDK/SDK 9.8.0/SDK/lib_gnu_434/IP_.lib(WifiConfig.o) (Wifi_SetDNS1)
C:/Program Files/TeliumSDK/SDK 9.8.0/SDK/lib_gnu_434/dll_wifi.lib(wifi28.o)
                              C:/Program Files/TeliumSDK/SDK 9.8.0/SDK/lib_gnu_434/IP_.lib(WifiConfig.o) (Wifi_SetDNS2)
C:/Program Files/TeliumSDK/SDK 9.8.0/SDK/lib_gnu_434/dll_wifi.lib(wifi29.o)
                              C:/Program Files/TeliumSDK/SDK 9.8.0/SDK/lib_gnu_434/IP_.lib(WifiConfig.o) (Wifi_SetBootproto)
C:/Program Files/TeliumSDK/SDK 9.8.0/SDK/lib_gnu_434/dll_wifi.lib(wifi30.o)
                              C:/Program Files/TeliumSDK/SDK 9.8.0/SDK/lib_gnu_434/IP_.lib(WifiConfig.o) (Wifi_SetDHCPGateway)
C:/Program Files/TeliumSDK/SDK 9.8.0/SDK/lib_gnu_434/dll_wifi.lib(wifi31.o)
                              C:/Program Files/TeliumSDK/SDK 9.8.0/SDK/lib_gnu_434/IP_.lib(WifiConfig.o) (Wifi_SetDHCPDNS)
C:/Program Files/TeliumSDK/SDK 9.8.0/SDK/lib_gnu_434/dll_wifi.lib(wifi32.o)
                              C:/Program Files/TeliumSDK/SDK 9.8.0/SDK/lib_gnu_434/IP_.lib(WifiConfig.o) (Wifi_GetGateway)
C:/Program Files/TeliumSDK/SDK 9.8.0/SDK/lib_gnu_434/dll_wifi.lib(wifi33.o)
                              C:/Program Files/TeliumSDK/SDK 9.8.0/SDK/lib_gnu_434/IP_.lib(WifiConfig.o) (Wifi_SetGateway)
C:/Program Files/TeliumSDK/SDK 9.8.0/SDK/lib_gnu_434/dll_wifi.lib(wifi34.o)
                              C:/Program Files/TeliumSDK/SDK 9.8.0/SDK/lib_gnu_434/dll_wifi.lib(wifi.o) (_Wifi_GetRoamingPolicy)
C:/Program Files/TeliumSDK/SDK 9.8.0/SDK/lib_gnu_434/dll_wifi.lib(wifi35.o)
                              C:/Program Files/TeliumSDK/SDK 9.8.0/SDK/lib_gnu_434/dll_wifi.lib(wifi.o) (_Wifi_SetRoamingPolicy)
C:/Program Files/TeliumSDK/SDK 9.8.0/SDK/lib_gnu_434/trap.lib(trap_13C1_trace.o)
                              C:/Program Files/TeliumSDK/SDK 9.8.0/SDK/lib_gnu_434/dll_wifi.lib(wifi1.o) (trace)
C:/Program Files/Ingenico/IngeDev_7/plugins/com.ingenico.ingedev.telium.bin.win32.gnuarm.v434_7.16.0.6/os/win32/GNUARM/4.3.4/arm-elf/lib/thumb/soft/interwork/libc.a(lib_a-memcmp.o)
                              Obj/GNU_ARM_DEBUG/FTP.o (memcmp)
C:/Program Files/Ingenico/IngeDev_7/plugins/com.ingenico.ingedev.telium.bin.win32.gnuarm.v434_7.16.0.6/os/win32/GNUARM/4.3.4/arm-elf/lib/thumb/soft/interwork/libc.a(lib_a-memcpy.o)
                              Obj/GNU_ARM_DEBUG/Boleto.o (memcpy)
C:/Program Files/Ingenico/IngeDev_7/plugins/com.ingenico.ingedev.telium.bin.win32.gnuarm.v434_7.16.0.6/os/win32/GNUARM/4.3.4/arm-elf/lib/thumb/soft/interwork/libc.a(lib_a-memmove.o)
                              C:/Program Files/TeliumSDK/SDK 9.8.0/SDK/lib_gnu_434/AVL.lib(Serializer_Xml.o) (memmove)
C:/Program Files/Ingenico/IngeDev_7/plugins/com.ingenico.ingedev.telium.bin.win32.gnuarm.v434_7.16.0.6/os/win32/GNUARM/4.3.4/arm-elf/lib/thumb/soft/interwork/libc.a(lib_a-memset.o)
                              Obj/GNU_ARM_DEBUG/Backlight.o (memset)
C:/Program Files/Ingenico/IngeDev_7/plugins/com.ingenico.ingedev.telium.bin.win32.gnuarm.v434_7.16.0.6/os/win32/GNUARM/4.3.4/arm-elf/lib/thumb/soft/interwork/libc.a(lib_a-snprintf.o)
                              C:/Program Files/TeliumSDK/SDK 9.8.0/SDK/lib_gnu_434/IP_.lib(EthernetConfig.o) (snprintf)
C:/Program Files/Ingenico/IngeDev_7/plugins/com.ingenico.ingedev.telium.bin.win32.gnuarm.v434_7.16.0.6/os/win32/GNUARM/4.3.4/arm-elf/lib/thumb/soft/interwork/libc.a(lib_a-strcat.o)
                              Obj/GNU_ARM_DEBUG/File.o (strcat)
C:/Program Files/Ingenico/IngeDev_7/plugins/com.ingenico.ingedev.telium.bin.win32.gnuarm.v434_7.16.0.6/os/win32/GNUARM/4.3.4/arm-elf/lib/thumb/soft/interwork/libc.a(lib_a-strchr.o)
                              Obj/GNU_ARM_DEBUG/Entry.o (strchr)
C:/Program Files/Ingenico/IngeDev_7/plugins/com.ingenico.ingedev.telium.bin.win32.gnuarm.v434_7.16.0.6/os/win32/GNUARM/4.3.4/arm-elf/lib/thumb/soft/interwork/libc.a(lib_a-strcmp.o)
                              Obj/GNU_ARM_DEBUG/Boleto.o (strcmp)
C:/Program Files/Ingenico/IngeDev_7/plugins/com.ingenico.ingedev.telium.bin.win32.gnuarm.v434_7.16.0.6/os/win32/GNUARM/4.3.4/arm-elf/lib/thumb/soft/interwork/libc.a(lib_a-strcpy.o)
                              Obj/GNU_ARM_DEBUG/Boleto.o (strcpy)
C:/Program Files/Ingenico/IngeDev_7/plugins/com.ingenico.ingedev.telium.bin.win32.gnuarm.v434_7.16.0.6/os/win32/GNUARM/4.3.4/arm-elf/lib/thumb/soft/interwork/libc.a(lib_a-strlen.o)
                              Obj/GNU_ARM_DEBUG/Boleto.o (strlen)
C:/Program Files/Ingenico/IngeDev_7/plugins/com.ingenico.ingedev.telium.bin.win32.gnuarm.v434_7.16.0.6/os/win32/GNUARM/4.3.4/arm-elf/lib/thumb/soft/interwork/libc.a(lib_a-strncat.o)
                              Obj/GNU_ARM_DEBUG/HTTP.o (strncat)
C:/Program Files/Ingenico/IngeDev_7/plugins/com.ingenico.ingedev.telium.bin.win32.gnuarm.v434_7.16.0.6/os/win32/GNUARM/4.3.4/arm-elf/lib/thumb/soft/interwork/libc.a(lib_a-strncpy.o)
                              Obj/GNU_ARM_DEBUG/Entry.o (strncpy)
C:/Program Files/Ingenico/IngeDev_7/plugins/com.ingenico.ingedev.telium.bin.win32.gnuarm.v434_7.16.0.6/os/win32/GNUARM/4.3.4/arm-elf/lib/thumb/soft/interwork/libc.a(lib_a-strstr.o)
                              Obj/GNU_ARM_DEBUG/Boleto.o (strstr)
C:/Program Files/Ingenico/IngeDev_7/plugins/com.ingenico.ingedev.telium.bin.win32.gnuarm.v434_7.16.0.6/os/win32/GNUARM/4.3.4/arm-elf/lib/thumb/soft/interwork/libc.a(lib_a-strtok.o)
                              Obj/GNU_ARM_DEBUG/Boleto.o (strtok)
C:/Program Files/Ingenico/IngeDev_7/plugins/com.ingenico.ingedev.telium.bin.win32.gnuarm.v434_7.16.0.6/os/win32/GNUARM/4.3.4/arm-elf/lib/thumb/soft/interwork/libc.a(lib_a-strtok_r.o)
                              C:/Program Files/Ingenico/IngeDev_7/plugins/com.ingenico.ingedev.telium.bin.win32.gnuarm.v434_7.16.0.6/os/win32/GNUARM/4.3.4/arm-elf/lib/thumb/soft/interwork/libc.a(lib_a-strtok.o) (__strtok_r)
C:/Program Files/Ingenico/IngeDev_7/plugins/com.ingenico.ingedev.telium.bin.win32.gnuarm.v434_7.16.0.6/os/win32/GNUARM/4.3.4/arm-elf/lib/thumb/soft/interwork/libc.a(lib_a-strtoul.o)
                              C:/Program Files/TeliumSDK/SDK 9.8.0/SDK/lib_gnu_434/AVL.lib(Serializer_Xml.o) (strtoul)
C:/Program Files/Ingenico/IngeDev_7/plugins/com.ingenico.ingedev.telium.bin.win32.gnuarm.v434_7.16.0.6/os/win32/GNUARM/4.3.4/arm-elf/lib/thumb/soft/interwork/libc.a(lib_a-svfprintf.o)
                              C:/Program Files/Ingenico/IngeDev_7/plugins/com.ingenico.ingedev.telium.bin.win32.gnuarm.v434_7.16.0.6/os/win32/GNUARM/4.3.4/arm-elf/lib/thumb/soft/interwork/libc.a(lib_a-snprintf.o) (_svfprintf_r)
C:/Program Files/Ingenico/IngeDev_7/plugins/com.ingenico.ingedev.telium.bin.win32.gnuarm.v434_7.16.0.6/os/win32/GNUARM/4.3.4/arm-elf/lib/thumb/soft/interwork/libc.a(lib_a-ctype_.o)
                              C:/Program Files/Ingenico/IngeDev_7/plugins/com.ingenico.ingedev.telium.bin.win32.gnuarm.v434_7.16.0.6/os/win32/GNUARM/4.3.4/arm-elf/lib/thumb/soft/interwork/libc.a(lib_a-strtoul.o) (__ctype_ptr__)
C:/Program Files/Ingenico/IngeDev_7/plugins/com.ingenico.ingedev.telium.bin.win32.gnuarm.v434_7.16.0.6/os/win32/GNUARM/4.3.4/arm-elf/lib/thumb/soft/interwork/libc.a(lib_a-dtoa.o)
                              C:/Program Files/Ingenico/IngeDev_7/plugins/com.ingenico.ingedev.telium.bin.win32.gnuarm.v434_7.16.0.6/os/win32/GNUARM/4.3.4/arm-elf/lib/thumb/soft/interwork/libc.a(lib_a-svfprintf.o) (_dtoa_r)
C:/Program Files/Ingenico/IngeDev_7/plugins/com.ingenico.ingedev.telium.bin.win32.gnuarm.v434_7.16.0.6/os/win32/GNUARM/4.3.4/arm-elf/lib/thumb/soft/interwork/libc.a(lib_a-impure.o)
                              C:/Program Files/Ingenico/IngeDev_7/plugins/com.ingenico.ingedev.telium.bin.win32.gnuarm.v434_7.16.0.6/os/win32/GNUARM/4.3.4/arm-elf/lib/thumb/soft/interwork/libc.a(lib_a-snprintf.o) (_impure_ptr)
C:/Program Files/Ingenico/IngeDev_7/plugins/com.ingenico.ingedev.telium.bin.win32.gnuarm.v434_7.16.0.6/os/win32/GNUARM/4.3.4/arm-elf/lib/thumb/soft/interwork/libc.a(lib_a-locale.o)
                              C:/Program Files/Ingenico/IngeDev_7/plugins/com.ingenico.ingedev.telium.bin.win32.gnuarm.v434_7.16.0.6/os/win32/GNUARM/4.3.4/arm-elf/lib/thumb/soft/interwork/libc.a(lib_a-svfprintf.o) (_localeconv_r)
C:/Program Files/Ingenico/IngeDev_7/plugins/com.ingenico.ingedev.telium.bin.win32.gnuarm.v434_7.16.0.6/os/win32/GNUARM/4.3.4/arm-elf/lib/thumb/soft/interwork/libc.a(lib_a-memchr.o)
                              C:/Program Files/Ingenico/IngeDev_7/plugins/com.ingenico.ingedev.telium.bin.win32.gnuarm.v434_7.16.0.6/os/win32/GNUARM/4.3.4/arm-elf/lib/thumb/soft/interwork/libc.a(lib_a-svfprintf.o) (memchr)
C:/Program Files/Ingenico/IngeDev_7/plugins/com.ingenico.ingedev.telium.bin.win32.gnuarm.v434_7.16.0.6/os/win32/GNUARM/4.3.4/arm-elf/lib/thumb/soft/interwork/libc.a(lib_a-mprec.o)
                              C:/Program Files/Ingenico/IngeDev_7/plugins/com.ingenico.ingedev.telium.bin.win32.gnuarm.v434_7.16.0.6/os/win32/GNUARM/4.3.4/arm-elf/lib/thumb/soft/interwork/libc.a(lib_a-dtoa.o) (_Bfree)
C:/Program Files/Ingenico/IngeDev_7/plugins/com.ingenico.ingedev.telium.bin.win32.gnuarm.v434_7.16.0.6/os/win32/GNUARM/4.3.4/arm-elf/lib/thumb/soft/interwork/libc.a(lib_a-s_fpclassify.o)
                              C:/Program Files/Ingenico/IngeDev_7/plugins/com.ingenico.ingedev.telium.bin.win32.gnuarm.v434_7.16.0.6/os/win32/GNUARM/4.3.4/arm-elf/lib/thumb/soft/interwork/libc.a(lib_a-svfprintf.o) (__fpclassifyd)
C:/Program Files/Ingenico/IngeDev_7/plugins/com.ingenico.ingedev.telium.bin.win32.gnuarm.v434_7.16.0.6/os/win32/GNUARM/4.3.4/arm-elf/lib/thumb/soft/interwork/libc.a(lib_a-svfiprintf.o)
                              C:/Program Files/Ingenico/IngeDev_7/plugins/com.ingenico.ingedev.telium.bin.win32.gnuarm.v434_7.16.0.6/os/win32/GNUARM/4.3.4/arm-elf/lib/thumb/soft/interwork/libc.a(lib_a-svfprintf.o) (__ssprint_r)
C:/Program Files/Ingenico/IngeDev_7/plugins/com.ingenico.ingedev.telium.bin.win32.gnuarm.v434_7.16.0.6/os/win32/GNUARM/4.3.4/lib/gcc/arm-elf/4.3.4/thumb/soft/interwork/libgcc.a(_udivsi3.o)
                              C:/Program Files/TeliumSDK/SDK 9.8.0/SDK/lib_gnu_434/IP_.lib(IP.o) (__udivsi3)
C:/Program Files/Ingenico/IngeDev_7/plugins/com.ingenico.ingedev.telium.bin.win32.gnuarm.v434_7.16.0.6/os/win32/GNUARM/4.3.4/lib/gcc/arm-elf/4.3.4/thumb/soft/interwork/libgcc.a(_divsi3.o)
                              C:/Program Files/Ingenico/IngeDev_7/plugins/com.ingenico.ingedev.telium.bin.win32.gnuarm.v434_7.16.0.6/os/win32/GNUARM/4.3.4/arm-elf/lib/thumb/soft/interwork/libc.a(lib_a-svfprintf.o) (__divsi3)
C:/Program Files/Ingenico/IngeDev_7/plugins/com.ingenico.ingedev.telium.bin.win32.gnuarm.v434_7.16.0.6/os/win32/GNUARM/4.3.4/lib/gcc/arm-elf/4.3.4/thumb/soft/interwork/libgcc.a(_umodsi3.o)
                              C:/Program Files/TeliumSDK/SDK 9.8.0/SDK/lib_gnu_434/IP_.lib(IP.o) (__umodsi3)
C:/Program Files/Ingenico/IngeDev_7/plugins/com.ingenico.ingedev.telium.bin.win32.gnuarm.v434_7.16.0.6/os/win32/GNUARM/4.3.4/lib/gcc/arm-elf/4.3.4/thumb/soft/interwork/libgcc.a(_modsi3.o)
                              Obj/GNU_ARM_DEBUG/Backlight.o (__modsi3)
C:/Program Files/Ingenico/IngeDev_7/plugins/com.ingenico.ingedev.telium.bin.win32.gnuarm.v434_7.16.0.6/os/win32/GNUARM/4.3.4/lib/gcc/arm-elf/4.3.4/thumb/soft/interwork/libgcc.a(_dvmd_tls.o)
                              C:/Program Files/Ingenico/IngeDev_7/plugins/com.ingenico.ingedev.telium.bin.win32.gnuarm.v434_7.16.0.6/os/win32/GNUARM/4.3.4/lib/gcc/arm-elf/4.3.4/thumb/soft/interwork/libgcc.a(_udivsi3.o) (__div0)
C:/Program Files/Ingenico/IngeDev_7/plugins/com.ingenico.ingedev.telium.bin.win32.gnuarm.v434_7.16.0.6/os/win32/GNUARM/4.3.4/lib/gcc/arm-elf/4.3.4/thumb/soft/interwork/libgcc.a(_addsubdf3.o)
                              C:/Program Files/Ingenico/IngeDev_7/plugins/com.ingenico.ingedev.telium.bin.win32.gnuarm.v434_7.16.0.6/os/win32/GNUARM/4.3.4/arm-elf/lib/thumb/soft/interwork/libc.a(lib_a-dtoa.o) (__subdf3)
C:/Program Files/Ingenico/IngeDev_7/plugins/com.ingenico.ingedev.telium.bin.win32.gnuarm.v434_7.16.0.6/os/win32/GNUARM/4.3.4/lib/gcc/arm-elf/4.3.4/thumb/soft/interwork/libgcc.a(_muldivdf3.o)
                              C:/Program Files/Ingenico/IngeDev_7/plugins/com.ingenico.ingedev.telium.bin.win32.gnuarm.v434_7.16.0.6/os/win32/GNUARM/4.3.4/arm-elf/lib/thumb/soft/interwork/libc.a(lib_a-dtoa.o) (__muldf3)
C:/Program Files/Ingenico/IngeDev_7/plugins/com.ingenico.ingedev.telium.bin.win32.gnuarm.v434_7.16.0.6/os/win32/GNUARM/4.3.4/lib/gcc/arm-elf/4.3.4/thumb/soft/interwork/libgcc.a(_cmpdf2.o)
                              C:/Program Files/Ingenico/IngeDev_7/plugins/com.ingenico.ingedev.telium.bin.win32.gnuarm.v434_7.16.0.6/os/win32/GNUARM/4.3.4/arm-elf/lib/thumb/soft/interwork/libc.a(lib_a-dtoa.o) (__gtdf2)
C:/Program Files/Ingenico/IngeDev_7/plugins/com.ingenico.ingedev.telium.bin.win32.gnuarm.v434_7.16.0.6/os/win32/GNUARM/4.3.4/lib/gcc/arm-elf/4.3.4/thumb/soft/interwork/libgcc.a(_fixdfsi.o)
                              C:/Program Files/Ingenico/IngeDev_7/plugins/com.ingenico.ingedev.telium.bin.win32.gnuarm.v434_7.16.0.6/os/win32/GNUARM/4.3.4/arm-elf/lib/thumb/soft/interwork/libc.a(lib_a-dtoa.o) (__fixdfsi)

Allocating common symbols
Common symbol       size              file

_Wifi_AccessPointScan
                    0x4               C:/Program Files/TeliumSDK/SDK 9.8.0/SDK/lib_gnu_434/dll_wifi.lib(wifi19.o)
DllGetProcAddress11
                    0x4               C:/Program Files/TeliumSDK/SDK 9.8.0/SDK/lib_gnu_434/eft30.lib(saisie.o)
DllGetProcAddress3  0x4               C:/Program Files/TeliumSDK/SDK 9.8.0/SDK/lib_gnu_434/eft30.lib(extens.o)
_Wifi_GetDHCPDNS    0x4               C:/Program Files/TeliumSDK/SDK 9.8.0/SDK/lib_gnu_434/dll_wifi.lib(wifi14.o)
_Wifi_GetDNS1       0x4               C:/Program Files/TeliumSDK/SDK 9.8.0/SDK/lib_gnu_434/dll_wifi.lib(wifi10.o)
_Wifi_GetGateway    0x4               C:/Program Files/TeliumSDK/SDK 9.8.0/SDK/lib_gnu_434/dll_wifi.lib(wifi32.o)
_tcp_connect_to_serverAddress
                    0x4               C:/Program Files/TeliumSDK/SDK 9.8.0/SDK/lib_gnu_434/eft30.lib(gprs11.o)
_HWCNF_SetBacklightLevelEx
                    0x4               C:/Program Files/TeliumSDK/SDK 9.8.0/SDK/lib_gnu_434/eft30.lib(hwcnf18.o)
_GetHeaderSizeAddress
                    0x4               C:/Program Files/TeliumSDK/SDK 9.8.0/SDK/lib_gnu_434/eft30.lib(extens201.o)
_Wifi_SignalIndication
                    0x4               C:/Program Files/TeliumSDK/SDK 9.8.0/SDK/lib_gnu_434/dll_wifi.lib(wifi6.o)
_Wifi_SetDHCPDNS    0x4               C:/Program Files/TeliumSDK/SDK 9.8.0/SDK/lib_gnu_434/dll_wifi.lib(wifi31.o)
_Wifi_GetMacAddress
                    0x4               C:/Program Files/TeliumSDK/SDK 9.8.0/SDK/lib_gnu_434/dll_wifi.lib(wifi7.o)
DllGetProcAddress16
                    0x4               C:/Program Files/TeliumSDK/SDK 9.8.0/SDK/lib_gnu_434/eft30.lib(hwcnf.o)
_Wifi_SetDNS1       0x4               C:/Program Files/TeliumSDK/SDK 9.8.0/SDK/lib_gnu_434/dll_wifi.lib(wifi27.o)
DllGetProcAddress6  0x4               C:/Program Files/TeliumSDK/SDK 9.8.0/SDK/lib_gnu_434/eft30.lib(libgr.o)
_Wifi_SetDNS2       0x4               C:/Program Files/TeliumSDK/SDK 9.8.0/SDK/lib_gnu_434/dll_wifi.lib(wifi28.o)
_Wifi_SetNetmask    0x4               C:/Program Files/TeliumSDK/SDK 9.8.0/SDK/lib_gnu_434/dll_wifi.lib(wifi26.o)
_Wifi_ProfileAdd    0x4               C:/Program Files/TeliumSDK/SDK 9.8.0/SDK/lib_gnu_434/dll_wifi.lib(wifi15.o)
_Wifi_IsConnected   0x4               C:/Program Files/TeliumSDK/SDK 9.8.0/SDK/lib_gnu_434/dll_wifi.lib(wifi2.o)
DllGetProcAddress13
                    0x4               C:/Program Files/TeliumSDK/SDK 9.8.0/SDK/lib_gnu_434/eft30.lib(gprs.o)
_Wifi_SetRoamingPolicy
                    0x4               C:/Program Files/TeliumSDK/SDK 9.8.0/SDK/lib_gnu_434/dll_wifi.lib(wifi35.o)
__SetFontAddress    0x4               C:/Program Files/TeliumSDK/SDK 9.8.0/SDK/lib_gnu_434/eft30.lib(libgr3.o)
_Wifi_SetKeepAlive  0x4               C:/Program Files/TeliumSDK/SDK 9.8.0/SDK/lib_gnu_434/dll_wifi.lib(wifi23.o)
_tcp_send_to_serverAddress
                    0x4               C:/Program Files/TeliumSDK/SDK 9.8.0/SDK/lib_gnu_434/eft30.lib(gprs13.o)
produto             0x1900            Obj/GNU_ARM_DEBUG/Backlight.o
_longto_dAddress    0x4               C:/Program Files/TeliumSDK/SDK 9.8.0/SDK/lib_gnu_434/eft30.lib(extens54.o)
_Wifi_GetRoamingPolicy
                    0x4               C:/Program Files/TeliumSDK/SDK 9.8.0/SDK/lib_gnu_434/dll_wifi.lib(wifi34.o)
_Wifi_Essid         0x4               C:/Program Files/TeliumSDK/SDK 9.8.0/SDK/lib_gnu_434/dll_wifi.lib(wifi3.o)
_Wifi_AccessPointList
                    0x4               C:/Program Files/TeliumSDK/SDK 9.8.0/SDK/lib_gnu_434/dll_wifi.lib(wifi20.o)
_StateHeaderAddress
                    0x4               C:/Program Files/TeliumSDK/SDK 9.8.0/SDK/lib_gnu_434/eft30.lib(extens119.o)
_IsHeaderActivatedAdress
                    0x4               C:/Program Files/TeliumSDK/SDK 9.8.0/SDK/lib_gnu_434/eft30.lib(extens134.o)
_Wifi_GetKeepAlive  0x4               C:/Program Files/TeliumSDK/SDK 9.8.0/SDK/lib_gnu_434/dll_wifi.lib(wifi22.o)
_Wifi_GetDNS2       0x4               C:/Program Files/TeliumSDK/SDK 9.8.0/SDK/lib_gnu_434/dll_wifi.lib(wifi11.o)
_BeepAddress        0x4               C:/Program Files/TeliumSDK/SDK 9.8.0/SDK/lib_gnu_434/eft30.lib(extens232.o)
msgtela             0x2e              Obj/GNU_ARM_DEBUG/Inicio.o
_TM_CreateGraphicsAddress
                    0x4               C:/Program Files/TeliumSDK/SDK 9.8.0/SDK/lib_gnu_434/eft30.lib(extens237.o)
_Wifi_SetDHCPGateway
                    0x4               C:/Program Files/TeliumSDK/SDK 9.8.0/SDK/lib_gnu_434/dll_wifi.lib(wifi30.o)
_Wifi_ProfileSetActive
                    0x4               C:/Program Files/TeliumSDK/SDK 9.8.0/SDK/lib_gnu_434/dll_wifi.lib(wifi16.o)
_Wifi_ProfileRemove
                    0x4               C:/Program Files/TeliumSDK/SDK 9.8.0/SDK/lib_gnu_434/dll_wifi.lib(wifi18.o)
_Wifi_GetNetmask    0x4               C:/Program Files/TeliumSDK/SDK 9.8.0/SDK/lib_gnu_434/dll_wifi.lib(wifi9.o)
DllGetProcAddress7  0x4               C:/Program Files/TeliumSDK/SDK 9.8.0/SDK/lib_gnu_434/eft30.lib(param.o)
_Wifi_GetIpAddress  0x4               C:/Program Files/TeliumSDK/SDK 9.8.0/SDK/lib_gnu_434/dll_wifi.lib(wifi8.o)
_Wifi_GetBootproto  0x4               C:/Program Files/TeliumSDK/SDK 9.8.0/SDK/lib_gnu_434/dll_wifi.lib(wifi12.o)
_gprs_connectAddress
                    0x4               C:/Program Files/TeliumSDK/SDK 9.8.0/SDK/lib_gnu_434/eft30.lib(gprs1.o)
_USR_ServiceCallAddress
                    0x4               C:/Program Files/TeliumSDK/SDK 9.8.0/SDK/lib_gnu_434/eft30.lib(extens280.o)
_Wifi_SetGateway    0x4               C:/Program Files/TeliumSDK/SDK 9.8.0/SDK/lib_gnu_434/dll_wifi.lib(wifi33.o)
_tcp_disconnect_from_serverAddress
                    0x4               C:/Program Files/TeliumSDK/SDK 9.8.0/SDK/lib_gnu_434/eft30.lib(gprs17.o)
_gprs_ppp_disconnectAddress
                    0x4               C:/Program Files/TeliumSDK/SDK 9.8.0/SDK/lib_gnu_434/eft30.lib(gprs32.o)
_TM_GetScreenSizeAddress
                    0x4               C:/Program Files/TeliumSDK/SDK 9.8.0/SDK/lib_gnu_434/eft30.lib(extens236.o)
_Wifi_Bssid         0x4               C:/Program Files/TeliumSDK/SDK 9.8.0/SDK/lib_gnu_434/dll_wifi.lib(wifi4.o)
_Wifi_ProfileModify
                    0x4               C:/Program Files/TeliumSDK/SDK 9.8.0/SDK/lib_gnu_434/dll_wifi.lib(wifi17.o)
_Wifi_ProfileGetList
                    0x4               C:/Program Files/TeliumSDK/SDK 9.8.0/SDK/lib_gnu_434/dll_wifi.lib(wifi21.o)
_Wifi_IsDevicePresent
                    0x4               C:/Program Files/TeliumSDK/SDK 9.8.0/SDK/lib_gnu_434/dll_wifi.lib(wifi1.o)
DllGetProcAddress12
                    0x4               C:/Program Files/TeliumSDK/SDK 9.8.0/SDK/lib_gnu_434/eft30.lib(sv.o)
DllGetProcAddressTools
                    0x4               C:/Program Files/TeliumSDK/SDK 9.8.0/SDK/lib_gnu_434/eft30.lib(Tools.o)
_tcp_recv_from_serverAddress
                    0x4               C:/Program Files/TeliumSDK/SDK 9.8.0/SDK/lib_gnu_434/eft30.lib(gprs15.o)
_gprs_enableAddress
                    0x4               C:/Program Files/TeliumSDK/SDK 9.8.0/SDK/lib_gnu_434/eft30.lib(gprs29.o)
_Wifi_GetScanResults
                    0x4               C:/Program Files/TeliumSDK/SDK 9.8.0/SDK/lib_gnu_434/dll_wifi.lib(wifi24.o)
_Wifi_GetDHCPGateway
                    0x4               C:/Program Files/TeliumSDK/SDK 9.8.0/SDK/lib_gnu_434/dll_wifi.lib(wifi13.o)
_Wifi_SetIpAddress  0x4               C:/Program Files/TeliumSDK/SDK 9.8.0/SDK/lib_gnu_434/dll_wifi.lib(wifi25.o)
_Wifi_SetBootproto  0x4               C:/Program Files/TeliumSDK/SDK 9.8.0/SDK/lib_gnu_434/dll_wifi.lib(wifi29.o)
_gprs_stopAddress   0x4               C:/Program Files/TeliumSDK/SDK 9.8.0/SDK/lib_gnu_434/eft30.lib(gprs19.o)
config              0x26e             Obj/GNU_ARM_DEBUG/Boleto.o
_Wifi_RSSI          0x4               C:/Program Files/TeliumSDK/SDK 9.8.0/SDK/lib_gnu_434/dll_wifi.lib(wifi5.o)

Memory Configuration

Name             Origin             Length             Attributes
*default*        0x00000000         0xffffffff

Linker script and memory map

                0x00000000                . = 0x0
                0x00000000                __text_start = .

.text           0x00000000    0x151b8
 *(.first)
 .first         0x00000000       0xb0 Obj/GNU_ARM_DEBUG/cstartup.o
                0x00000000                _start
 *(.text .text.*)
 .text          0x000000b0      0x1d8 Obj/GNU_ARM_DEBUG/Backlight.o
                0x000000b0                DefinirLuzFundo
 .text          0x00000288      0xed8 Obj/GNU_ARM_DEBUG/Boleto.o
                0x00000288                ImprimeBMP
                0x00000334                ImprimeCodBarras25
                0x000004e0                ImprimeCaracVert
                0x00000534                ImprimeVertical
                0x00000780                ImprimeBoleto
                0x00000ddc                ImprimeBoletos
 .text          0x00001160      0x570 Obj/GNU_ARM_DEBUG/Conn.o
                0x00001160                PegaPortaServidor
                0x0000119c                Validate_ip4
                0x00001210                PegaIPServidor
                0x000012b0                AbrirEthernetManual
                0x00001344                AtivarDHCP
                0x000013bc                StatusDHCP
                0x00001414                PrintNetworkInfos
 .text          0x000016d0      0xb48 Obj/GNU_ARM_DEBUG/Dialogs.o
                0x000016d0                PrintSimpleMessage
                0x00001734                DisplayLogo
                0x000017b8                LimpaTela
                0x000017e4                PegaSenha
                0x000018b0                PegaInteiro
                0x00001980                PegaAlfa
                0x00001a9c                ShowDialogBox
                0x00001b34                PegaEnderecoIP
                0x00001c2c                DisplaySimpleMessage2lines
                0x00001d1c                PressioneTecla
                0x00001d74                DisplaySimpleMessage
                0x00001e30                Bip
                0x00001e60                PegaMSISDN
                0x00002068                PegaData
 .text          0x00002218      0x9fc Obj/GNU_ARM_DEBUG/Entry.o
                0x00002218                give_your_domain
                0x0000225c                more_function
                0x00002280                time_function
                0x000022b8                is_delete
                0x000022e0                card_inside
                0x00002308                give_interface
                0x00002354                entry
                0x000023c8                debit_non_emv
                0x00002444                is_for_you_after
                0x00002524                message_received
                0x000025ac                file_received
                0x000026b0                modif_param
                0x0000270c                mcall
                0x00002798                consult
                0x00002824                state
                0x000028d4                keyboard_event
                0x00002964                idle_message
                0x000029d8                is_name
                0x00002a40                is_card_specific
                0x00002a7c                is_evol_pg
                0x00002ab8                is_change_init
                0x00002b14                is_time_function
                0x00002b50                is_state
                0x00002b8c                after_reset
 .text          0x00002c14      0xa20 Obj/GNU_ARM_DEBUG/File.o
                0x00002c14                SalvarConfigs
                0x00002f58                SalvarProdutos
                0x00003068                CarregarProdutos
                0x00003204                CarregarConfigs
 .text          0x00003634      0x42c Obj/GNU_ARM_DEBUG/FTP.o
                0x00003634                iFtp_get_file_list
                0x000036cc                RAMDISK_Activate
                0x00003700                RAMDISK_CloseFile
                0x00003728                RAMDISK_OpenFile
                0x0000379c                RAMDISK_Delete
                0x000037fc                RAMDISK_Create
                0x00003898                RAMDISK_WriteInFile
                0x000038ec                iFtp_download_file
                0x000039e0                iFtp_download_files
 .text          0x00003a60      0x420 Obj/GNU_ARM_DEBUG/GPRS.o
                0x00003a60                ConnectNetworkGPRS_LL
                0x00003c0c                WaitNetworkPPP
                0x00003c74                WaitNetworkAvailable
                0x00003d00                ConnectNetworkGPRS
                0x00003da4                AbrirGPRS
                0x00003e2c                ChecarPPP
 .text          0x00003e80      0x50c Obj/GNU_ARM_DEBUG/HTTP.o
                0x00003e80                _EnviaSocket
                0x00003fc0                EnviaSocket
                0x00004064                TesteConexao
                0x0000411c                HttpResponse
                0x00004264                HttpPost
 .text          0x0000438c      0x530 Obj/GNU_ARM_DEBUG/Inicio.o
                0x0000438c                VerificarTrocaChip
                0x00004498                AtualizarMsgTela
                0x0000453c                AtualizarProdutos
                0x000046fc                AtualizarHora
                0x00004798                Inicio
 .text          0x000048bc      0x134 Obj/GNU_ARM_DEBUG/Main.o
                0x000048bc                Main
 .text          0x000049f0     0x1ba8 Obj/GNU_ARM_DEBUG/Menus.o
                0x000049f0                opcaoFechaDistrib
                0x00004a14                opcaoCreditoVista
                0x00004a38                opcaoReimpressaoBoleto
                0x00004a5c                opcaoVendaUsuario
                0x00004a80                opcaoConsultaSaldo
                0x00004aa4                opcaoConsultaNSU
                0x00004ac8                opcaoLuzFundo
                0x00004af0                opcaoTesteConexao
                0x00004b18                opcaoAtualizar
                0x00004b78                opcaoAlterarSenha
                0x00004cc0                opcaoPorCodigo
                0x00004e7c                opcaoUltimaVenda
                0x00005014                opcaoImprimirCobranca
                0x00005044                opcaoAtualizarVersao
                0x0000506c                opcaoInformacoesGerais
                0x00005094                opcaoRegistrarAtend
                0x00005208                opcaoVincularDistrib
                0x00005408                opcaoReiniciar
                0x00005430                opcaoEthernetManual
                0x00005664                opcaoGPRSPublicoOutros
                0x00005838                imprimirRelatorio
                0x00005970                opcaoVendaData
                0x00005acc                opcaoListarCobrancas
                0x00005bb8                OperManageMenu
                0x00005cb8                ManageMenu
                0x00005db8                opcaoReimpressaoVendas
                0x00005e18                opcaoRelatorios
                0x00005e74                opcaoCobranca
                0x00005ee4                iniciarMenuAdm
                0x00005f6c                iniciarMenuPrincipal
                0x00006168                opcaoConfServidor
                0x00006288                opcaoGPRSPublico
                0x00006408                opcaoTipoConexao
                0x000064b8                iniciarMenuSistema
 .text          0x00006598      0x10c Obj/GNU_ARM_DEBUG/NTP.o
                0x00006598                NTPDate
 .text          0x000066a4      0x464 Obj/GNU_ARM_DEBUG/Sistema.o
                0x000066a4                AtualizarSistema
                0x000068b0                PegarSerial
                0x00006900                PegarICCID
                0x0000694c                PegarModelo
 .text          0x00006b08      0x78c Obj/GNU_ARM_DEBUG/Recarga.o
                0x00006b08                ImprimirComprovante
                0x00006d88                opcaoRecarga
                0x00007054                RecManageMenu
                0x00007154                iniciarMenuRecarga
 .text          0x00007294        0x0 Obj/GNU_ARM_DEBUG/cstartup.o
 .text          0x00007294       0x20 Obj/GNU_ARM_DEBUG/__ing_cguard.o
                0x00007294                __stack_chk_fail
 *fill*         0x000072b4        0xc 00
 .text          0x000072c0       0x70 Obj/GNU_ARM_DEBUG/__ing_getRand_dateXORSerial.o
                0x000072c0                __stack_get_rand
 .text          0x00007330       0x94 C:/Program Files/TeliumSDK/SDK 9.8.0/SDK/lib_gnu_434/eft30.lib(atoi.o)
                0x00007330                atol
                0x0000739c                atoi
 .text          0x000073c4       0x64 C:/Program Files/TeliumSDK/SDK 9.8.0/SDK/lib_gnu_434/eft30.lib(extens119.o)
                0x000073c4                StateHeader
 .text          0x00007428       0x88 C:/Program Files/TeliumSDK/SDK 9.8.0/SDK/lib_gnu_434/eft30.lib(extens134.o)
                0x00007428                IsHeaderActivated
                0x00007484                IsHeader
 .text          0x000074b0       0x74 C:/Program Files/TeliumSDK/SDK 9.8.0/SDK/lib_gnu_434/eft30.lib(extens201.o)
                0x000074b0                GetHeaderSize
 .text          0x00007524       0x74 C:/Program Files/TeliumSDK/SDK 9.8.0/SDK/lib_gnu_434/eft30.lib(extens232.o)
                0x00007524                Beep
 .text          0x00007598       0x74 C:/Program Files/TeliumSDK/SDK 9.8.0/SDK/lib_gnu_434/eft30.lib(extens54.o)
                0x00007598                longto_d
 .text          0x0000760c       0x68 C:/Program Files/TeliumSDK/SDK 9.8.0/SDK/lib_gnu_434/eft30.lib(param156.o)
                0x0000760c                PSQ_Give_Full_Serial_Number
 .text          0x00007674       0x6c C:/Program Files/TeliumSDK/SDK 9.8.0/SDK/lib_gnu_434/eft30.lib(param17.o)
                0x00007674                PSQ_Donner_noserie
 .text          0x000076e0       0x6c C:/Program Files/TeliumSDK/SDK 9.8.0/SDK/lib_gnu_434/eft30.lib(param47.o)
                0x000076e0                PSQ_lire_type_materiel
 .text          0x0000774c       0x6c C:/Program Files/TeliumSDK/SDK 9.8.0/SDK/lib_gnu_434/eft30.lib(param81.o)
                0x0000774c                PSQ_Lire_Gamme_Produit
 .text          0x000077b8       0x70 C:/Program Files/TeliumSDK/SDK 9.8.0/SDK/lib_gnu_434/eft30.lib(saisie18.o)
                0x000077b8                G_Saisie_Etendue
 .text          0x00007828       0x70 C:/Program Files/TeliumSDK/SDK 9.8.0/SDK/lib_gnu_434/eft30.lib(saisie6.o)
                0x00007828                Read_Saisie
 .text          0x00007898       0x70 C:/Program Files/TeliumSDK/SDK 9.8.0/SDK/lib_gnu_434/eft30.lib(saisie7.o)
                0x00007898                G_Saisie_Numerique
 .text          0x00007908       0x70 C:/Program Files/TeliumSDK/SDK 9.8.0/SDK/lib_gnu_434/eft30.lib(saisie8.o)
                0x00007908                G_Saisie_Alphanumerique
 .text          0x00007978       0x6c C:/Program Files/TeliumSDK/SDK 9.8.0/SDK/lib_gnu_434/eft30.lib(saisie9.o)
                0x00007978                G_Saisie_Liste
 .text          0x000079e4       0x68 C:/Program Files/TeliumSDK/SDK 9.8.0/SDK/lib_gnu_434/eft30.lib(sv24.o)
                0x000079e4                SV_read_date
 .text          0x00007a4c       0x68 C:/Program Files/TeliumSDK/SDK 9.8.0/SDK/lib_gnu_434/eft30.lib(sv25.o)
                0x00007a4c                SV_write_date
 .text          0x00007ab4       0x68 C:/Program Files/TeliumSDK/SDK 9.8.0/SDK/lib_gnu_434/eft30.lib(libgr110.o)
                0x00007ab4                clrscr
 .text          0x00007b1c       0x7c C:/Program Files/TeliumSDK/SDK 9.8.0/SDK/lib_gnu_434/eft30.lib(libgr123.o)
                0x00007b1c                GetBmpInfos
 .text          0x00007b98       0x5c C:/Program Files/TeliumSDK/SDK 9.8.0/SDK/lib_gnu_434/eft30.lib(libgr137.o)
                0x00007b98                PaintGraphics
 .text          0x00007bf4      0x100 C:/Program Files/TeliumSDK/SDK 9.8.0/SDK/lib_gnu_434/eft30.lib(libgr25.o)
                0x00007bf4                _DrawWindowFont
                0x00007c74                _DrawWindow
 .text          0x00007cf4       0x6c C:/Program Files/TeliumSDK/SDK 9.8.0/SDK/lib_gnu_434/eft30.lib(libgr3.o)
                0x00007cf4                SetFont
 .text          0x00007d60       0x70 C:/Program Files/TeliumSDK/SDK 9.8.0/SDK/lib_gnu_434/eft30.lib(libgr33.o)
                0x00007d60                GetScreenSize
 .text          0x00007dd0       0x68 C:/Program Files/TeliumSDK/SDK 9.8.0/SDK/lib_gnu_434/eft30.lib(libgr35.o)
                0x00007dd0                _clrscr
 .text          0x00007e38       0x6c C:/Program Files/TeliumSDK/SDK 9.8.0/SDK/lib_gnu_434/eft30.lib(libgr37.o)
                0x00007e38                GetPoliceSize
 .text          0x00007ea4       0x80 C:/Program Files/TeliumSDK/SDK 9.8.0/SDK/lib_gnu_434/eft30.lib(libgr41.o)
                0x00007ea4                DisplayBitmap
 .text          0x00007f24       0x68 C:/Program Files/TeliumSDK/SDK 9.8.0/SDK/lib_gnu_434/eft30.lib(libgr49.o)
                0x00007f24                GetDefaultFont
 .text          0x00007f8c       0x80 C:/Program Files/TeliumSDK/SDK 9.8.0/SDK/lib_gnu_434/eft30.lib(libgr50.o)
                0x00007f8c                _DrawExtendedString
 .text          0x0000800c       0x78 C:/Program Files/TeliumSDK/SDK 9.8.0/SDK/lib_gnu_434/eft30.lib(libgr52.o)
                0x0000800c                _SizeofExtendedString
 .text          0x00008084       0x68 C:/Program Files/TeliumSDK/SDK 9.8.0/SDK/lib_gnu_434/eft30.lib(libgr7.o)
                0x00008084                CreateGraphics
 .text          0x000080ec       0x70 C:/Program Files/TeliumSDK/SDK 9.8.0/SDK/lib_gnu_434/eft30.lib(libgr75.o)
                0x000080ec                DefPrinterMargins
 .text          0x0000815c       0x78 C:/Program Files/TeliumSDK/SDK 9.8.0/SDK/lib_gnu_434/eft30.lib(libgr81.o)
                0x0000815c                _PrintBmpXY
 .text          0x000081d4       0x68 C:/Program Files/TeliumSDK/SDK 9.8.0/SDK/lib_gnu_434/eft30.lib(libgr82.o)
                0x000081d4                PaintPrinterGraphics
 .text          0x0000823c       0x6c C:/Program Files/TeliumSDK/SDK 9.8.0/SDK/lib_gnu_434/eft30.lib(libgr83.o)
                0x0000823c                InitPrinterBitmap
 .text          0x000082a8       0x64 C:/Program Files/TeliumSDK/SDK 9.8.0/SDK/lib_gnu_434/eft30.lib(Tools35.o)
                0x000082a8                TM_read_date
 .text          0x0000830c       0x64 C:/Program Files/TeliumSDK/SDK 9.8.0/SDK/lib_gnu_434/eft30.lib(Tools36.o)
                0x0000830c                TM_write_date
 .text          0x00008370       0x80 C:/Program Files/TeliumSDK/SDK 9.8.0/SDK/lib_gnu_434/eft30.lib(gprs1.o)
                0x00008370                gprs_connect
 .text          0x000083f0       0x78 C:/Program Files/TeliumSDK/SDK 9.8.0/SDK/lib_gnu_434/eft30.lib(gprs11.o)
                0x000083f0                tcp_connect_to_server
 .text          0x00008468       0x7c C:/Program Files/TeliumSDK/SDK 9.8.0/SDK/lib_gnu_434/eft30.lib(gprs13.o)
                0x00008468                tcp_send_to_server
 .text          0x000084e4       0x7c C:/Program Files/TeliumSDK/SDK 9.8.0/SDK/lib_gnu_434/eft30.lib(gprs15.o)
                0x000084e4                tcp_recv_from_server
 .text          0x00008560       0x70 C:/Program Files/TeliumSDK/SDK 9.8.0/SDK/lib_gnu_434/eft30.lib(gprs17.o)
                0x00008560                tcp_disconnect_from_server
 .text          0x000085d0       0x6c C:/Program Files/TeliumSDK/SDK 9.8.0/SDK/lib_gnu_434/eft30.lib(gprs19.o)
                0x000085d0                gprs_stop
 .text          0x0000863c       0x70 C:/Program Files/TeliumSDK/SDK 9.8.0/SDK/lib_gnu_434/eft30.lib(gprs29.o)
                0x0000863c                gprs_enable
 .text          0x000086ac       0x6c C:/Program Files/TeliumSDK/SDK 9.8.0/SDK/lib_gnu_434/eft30.lib(gprs32.o)
                0x000086ac                gprs_ppp_disconnect
 .text          0x00008718       0x6c C:/Program Files/TeliumSDK/SDK 9.8.0/SDK/lib_gnu_434/eft30.lib(hwcnf18.o)
                0x00008718                HWCNF_SetBacklightLevelEx
 .text          0x00008784       0xcc C:/Program Files/TeliumSDK/SDK 9.8.0/SDK/lib_gnu_434/eft30.lib(gprs_lib.o)
                0x00008784                gprs_IsNetworkAvailable
 .text          0x00008850      0x300 C:/Program Files/TeliumSDK/SDK 9.8.0/SDK/lib_gnu_434/eft30.lib(LibAppli.o)
                0x00008850                InitVar_vide
                0x00008870                TrapResetDiv0
                0x0000889c                OEM_exit_asm
                0x000088c4                InitGK
                0x000088f8                putchar
                0x00008928                __stdprt
                0x00008958                format
                0x0000898c                printf
                0x000089c4                WaitOnError
                0x00008a30                puts
                0x00008a60                vprintf
                0x00008a94                fprintf
                0x00008ac8                pprintf
                0x00008b1c                sprintf
 .text          0x00008b50      0x1e4 C:/Program Files/TeliumSDK/SDK 9.8.0/SDK/lib_gnu_434/eft30.lib(ctype.o)
                0x00008b50                isupper
                0x00008b7c                islower
                0x00008ba8                isalpha
                0x00008bd4                isdigit
                0x00008c00                isxdigit
                0x00008c2c                isspace
                0x00008c58                ispunct
                0x00008c84                isalnum
                0x00008cb0                isgraph
                0x00008cdc                isprint
                0x00008d08                iscntrl
 .text          0x00008d34       0x90 C:/Program Files/TeliumSDK/SDK 9.8.0/SDK/lib_gnu_434/eft30.lib(extens.o)
                0x00008d34                extenslib_close
                0x00008d60                extenslib_open
 .text          0x00008dc4       0x70 C:/Program Files/TeliumSDK/SDK 9.8.0/SDK/lib_gnu_434/eft30.lib(extens236.o)
                0x00008dc4                TM_GetScreenSize
 .text          0x00008e34       0x6c C:/Program Files/TeliumSDK/SDK 9.8.0/SDK/lib_gnu_434/eft30.lib(extens237.o)
                0x00008e34                TM_CreateGraphics
 .text          0x00008ea0       0x90 C:/Program Files/TeliumSDK/SDK 9.8.0/SDK/lib_gnu_434/eft30.lib(param.o)
                0x00008ea0                paramlib_close
                0x00008ecc                paramlib_open
 .text          0x00008f30       0x90 C:/Program Files/TeliumSDK/SDK 9.8.0/SDK/lib_gnu_434/eft30.lib(saisie.o)
                0x00008f30                saisielib_close
                0x00008f5c                saisielib_open
 .text          0x00008fc0       0x90 C:/Program Files/TeliumSDK/SDK 9.8.0/SDK/lib_gnu_434/eft30.lib(sv.o)
                0x00008fc0                svlib_close
                0x00008fec                svlib_open
 .text          0x00009050       0x90 C:/Program Files/TeliumSDK/SDK 9.8.0/SDK/lib_gnu_434/eft30.lib(libgr.o)
                0x00009050                libgrlib_close
                0x0000907c                libgrlib_open
 .text          0x000090e0       0x90 C:/Program Files/TeliumSDK/SDK 9.8.0/SDK/lib_gnu_434/eft30.lib(Tools.o)
                0x000090e0                toolslib_close
                0x0000910c                toolslib_open
 .text          0x00009170       0x70 C:/Program Files/TeliumSDK/SDK 9.8.0/SDK/lib_gnu_434/eft30.lib(gprs.o)
                0x00009170                gprslib_open
 .text          0x000091e0       0x90 C:/Program Files/TeliumSDK/SDK 9.8.0/SDK/lib_gnu_434/eft30.lib(hwcnf.o)
                0x000091e0                hwcnflib_close
                0x0000920c                hwcnflib_open
 .text          0x00009270       0x10 C:/Program Files/TeliumSDK/SDK 9.8.0/SDK/lib_gnu_434/trap.lib(trap_1302___STDOUT.o)
                0x00009270                __STDOUT
 .text          0x00009280       0x10 C:/Program Files/TeliumSDK/SDK 9.8.0/SDK/lib_gnu_434/trap.lib(trap_1313_fclose.o)
                0x00009280                fclose
 .text          0x00009290       0x10 C:/Program Files/TeliumSDK/SDK 9.8.0/SDK/lib_gnu_434/trap.lib(trap_1314_fopen.o)
                0x00009290                fopen
 .text          0x000092a0       0x10 C:/Program Files/TeliumSDK/SDK 9.8.0/SDK/lib_gnu_434/trap.lib(trap_1319_getc.o)
                0x000092a0                getc
 .text          0x000092b0       0x10 C:/Program Files/TeliumSDK/SDK 9.8.0/SDK/lib_gnu_434/trap.lib(trap_131B___STDIN.o)
                0x000092b0                __STDIN
 .text          0x000092c0       0x10 C:/Program Files/TeliumSDK/SDK 9.8.0/SDK/lib_gnu_434/trap.lib(trap_131E_status.o)
                0x000092c0                status
 .text          0x000092d0       0x10 C:/Program Files/TeliumSDK/SDK 9.8.0/SDK/lib_gnu_434/trap.lib(trap_1323__vfprintf.o)
                0x000092d0                _vfprintf
 .text          0x000092e0       0x10 C:/Program Files/TeliumSDK/SDK 9.8.0/SDK/lib_gnu_434/trap.lib(trap_1324_vsprintf.o)
                0x000092e0                vsprintf
 .text          0x000092f0       0x10 C:/Program Files/TeliumSDK/SDK 9.8.0/SDK/lib_gnu_434/trap.lib(trap_1328_putc.o)
                0x000092f0                putc
 .text          0x00009300       0x10 C:/Program Files/TeliumSDK/SDK 9.8.0/SDK/lib_gnu_434/trap.lib(trap_1329_ttestall.o)
                0x00009300                ttestall
 .text          0x00009310       0x10 C:/Program Files/TeliumSDK/SDK 9.8.0/SDK/lib_gnu_434/trap.lib(trap_132C_FormatOem.o)
                0x00009310                FormatOem
 .text          0x00009320       0x10 C:/Program Files/TeliumSDK/SDK 9.8.0/SDK/lib_gnu_434/trap.lib(trap_1348_ObjectGetInfo.o)
                0x00009320                ObjectGetInfo
 .text          0x00009330       0x10 C:/Program Files/TeliumSDK/SDK 9.8.0/SDK/lib_gnu_434/trap.lib(trap_1349_ObjectLoad.o)
                0x00009330                ObjectLoad
 .text          0x00009340       0x10 C:/Program Files/TeliumSDK/SDK 9.8.0/SDK/lib_gnu_434/trap.lib(trap_134B_FreeSpace.o)
                0x00009340                FreeSpace
 .text          0x00009350       0x10 C:/Program Files/TeliumSDK/SDK 9.8.0/SDK/lib_gnu_434/trap.lib(trap_134D_ServiceRegister.o)
                0x00009350                ServiceRegister
 .text          0x00009360       0x10 C:/Program Files/TeliumSDK/SDK 9.8.0/SDK/lib_gnu_434/trap.lib(trap_1350_DllLink.o)
                0x00009360                DllLink
 .text          0x00009370       0x10 C:/Program Files/TeliumSDK/SDK 9.8.0/SDK/lib_gnu_434/trap.lib(trap_1352_DllUnlink.o)
                0x00009370                DllUnlink
 .text          0x00009380       0x10 C:/Program Files/TeliumSDK/SDK 9.8.0/SDK/lib_gnu_434/trap.lib(trap_1356_stdperif.o)
                0x00009380                stdperif
 .text          0x00009390       0x10 C:/Program Files/TeliumSDK/SDK 9.8.0/SDK/lib_gnu_434/trap.lib(trap_1375_download.o)
                0x00009390                download
 .text          0x000093a0       0x10 C:/Program Files/TeliumSDK/SDK 9.8.0/SDK/lib_gnu_434/trap.lib(trap_1378_OEM_exit.o)
                0x000093a0                OEM_exit
 .text          0x000093b0       0x10 C:/Program Files/TeliumSDK/SDK 9.8.0/SDK/lib_gnu_434/trap.lib(trap_137B_is_iso2.o)
                0x000093b0                is_iso2
 .text          0x000093c0       0x10 C:/Program Files/TeliumSDK/SDK 9.8.0/SDK/lib_gnu_434/trap.lib(trap_1386_upload_diagnostic_txt.o)
                0x000093c0                upload_diagnostic_txt
 .text          0x000093d0       0x10 C:/Program Files/TeliumSDK/SDK 9.8.0/SDK/lib_gnu_434/trap.lib(trap_138B_FS_dskcreate.o)
                0x000093d0                FS_dskcreate
 .text          0x000093e0       0x10 C:/Program Files/TeliumSDK/SDK 9.8.0/SDK/lib_gnu_434/trap.lib(trap_138C_FS_dskkill.o)
                0x000093e0                FS_dskkill
 .text          0x000093f0       0x10 C:/Program Files/TeliumSDK/SDK 9.8.0/SDK/lib_gnu_434/trap.lib(trap_138D_FS_mount.o)
                0x000093f0                FS_mount
 .text          0x00009400       0x10 C:/Program Files/TeliumSDK/SDK 9.8.0/SDK/lib_gnu_434/trap.lib(trap_138E_FS_unmount.o)
                0x00009400                FS_unmount
 .text          0x00009410       0x10 C:/Program Files/TeliumSDK/SDK 9.8.0/SDK/lib_gnu_434/trap.lib(trap_1399_FS_unlink.o)
                0x00009410                FS_unlink
 .text          0x00009420       0x10 C:/Program Files/TeliumSDK/SDK 9.8.0/SDK/lib_gnu_434/trap.lib(trap_139B_FS_open.o)
                0x00009420                FS_open
 .text          0x00009430       0x10 C:/Program Files/TeliumSDK/SDK 9.8.0/SDK/lib_gnu_434/trap.lib(trap_139C_FS_close.o)
                0x00009430                FS_close
 .text          0x00009440       0x10 C:/Program Files/TeliumSDK/SDK 9.8.0/SDK/lib_gnu_434/trap.lib(trap_139D_FS_read.o)
                0x00009440                FS_read
 .text          0x00009450       0x10 C:/Program Files/TeliumSDK/SDK 9.8.0/SDK/lib_gnu_434/trap.lib(trap_139E_FS_write.o)
                0x00009450                FS_write
 .text          0x00009460       0x10 C:/Program Files/TeliumSDK/SDK 9.8.0/SDK/lib_gnu_434/trap.lib(trap_13A1_FS_length.o)
                0x00009460                FS_length
 .text          0x00009470       0x10 C:/Program Files/TeliumSDK/SDK 9.8.0/SDK/lib_gnu_434/trap.lib(trap_13AB_first_init.o)
                0x00009470                first_init
 .text          0x00009480       0x10 C:/Program Files/TeliumSDK/SDK 9.8.0/SDK/lib_gnu_434/trap.lib(trap_13AD_raz_init.o)
                0x00009480                raz_init
 .text          0x00009490       0x10 C:/Program Files/TeliumSDK/SDK 9.8.0/SDK/lib_gnu_434/trap.lib(trap_13B2_ApplicationGetCurrent.o)
                0x00009490                ApplicationGetCurrent
 .text          0x000094a0       0x10 C:/Program Files/TeliumSDK/SDK 9.8.0/SDK/lib_gnu_434/trap.lib(trap_13C2_InitGkDrv.o)
                0x000094a0                InitGkDrv
 .text          0x000094b0       0x10 C:/Program Files/TeliumSDK/SDK 9.8.0/SDK/lib_gnu_434/trap.lib(trap_13C4_SoftwareActivate.o)
                0x000094b0                SoftwareActivate
 .text          0x000094c0       0x10 C:/Program Files/TeliumSDK/SDK 9.8.0/SDK/lib_gnu_434/trap.lib(trap_13CE_closesocket.o)
                0x000094c0                closesocket
 .text          0x000094d0       0x10 C:/Program Files/TeliumSDK/SDK 9.8.0/SDK/lib_gnu_434/trap.lib(trap_13CF_connect.o)
                0x000094d0                connect
 .text          0x000094e0       0x10 C:/Program Files/TeliumSDK/SDK 9.8.0/SDK/lib_gnu_434/trap.lib(trap_13D7_socket.o)
                0x000094e0                socket
 .text          0x000094f0       0x10 C:/Program Files/TeliumSDK/SDK 9.8.0/SDK/lib_gnu_434/trap.lib(trap_1406_umalloc.o)
                0x000094f0                umalloc
 .text          0x00009500       0x10 C:/Program Files/TeliumSDK/SDK 9.8.0/SDK/lib_gnu_434/trap.lib(trap_1407_ufree.o)
                0x00009500                ufree
 .text          0x00009510       0x10 C:/Program Files/TeliumSDK/SDK 9.8.0/SDK/lib_gnu_434/trap.lib(trap_1414_fioctl.o)
                0x00009510                fioctl
 .text          0x00009520       0x10 C:/Program Files/TeliumSDK/SDK 9.8.0/SDK/lib_gnu_434/trap.lib(trap_142A_urealloc.o)
                0x00009520                urealloc
 .text          0x00009530       0x10 C:/Program Files/TeliumSDK/SDK 9.8.0/SDK/lib_gnu_434/trap.lib(trap_1432_SystemFioctl.o)
                0x00009530                SystemFioctl
 .text          0x00009540      0x78c C:/Program Files/TeliumSDK/SDK 9.8.0/SDK/lib_gnu_434/LinkLayerExeInterface.lib(LinkLayerServices.o)
                0x00009540                LL_GSM_Stop
                0x00009580                LL_GPRS_Stop
                0x000095c0                LL_Network_GetStatus
                0x00009610                LL_WaitEvent
                0x00009658                LL_GetStatus
                0x0000969c                LL_GetLastError
                0x000096e0                LL_ClearReceiveBuffer
                0x00009724                LL_ClearSendBuffer
                0x00009768                LL_Disconnect
                0x000097ac                LL_Connect
                0x000097f0                LL_GetHandle
                0x00009868                LL_GSM_Start
                0x000098dc                LL_GPRS_Connect
                0x00009974                LL_GPRS_Start
                0x00009a04                LL_Receive
                0x00009aa8                LL_Send
                0x00009b44                LL_GetInfo
                0x00009bf0                LL_Configure
 .text          0x00009ccc      0xa9c C:/Program Files/TeliumSDK/SDK 9.8.0/SDK/lib_gnu_434/FTP_.lib(FTP.o)
                0x00009ccc                InetATON
                0x00009dac                FTP_SetOption
                0x00009df0                FTPS_GetHandles
                0x00009e24                FTPES_SecureData
                0x00009e5c                FTPES_UnsecureData
                0x00009e94                FTPES_SecureCommand
                0x00009ee8                FTPES_UnsecureCommand
                0x0000a060                FTP_Append
                0x0000a0ac                FTP_AppendFile
                0x0000a0fc                FTP_Put
                0x0000a148                FTP_Get
                0x0000a194                FTP_GetListItem
                0x0000a1d8                FTP_CloseData
                0x0000a20c                FTP_GetFullList
                0x0000a258                FTP_GetList
                0x0000a2a4                FTP_PutData
                0x0000a2d8                FTP_GetData
                0x0000a30c                FTP_Alive
                0x0000a340                FTP_SetType
                0x0000a378                FTP_GetError
                0x0000a3ac                FTP_RemoveDir
                0x0000a3e0                FTP_MakeDir
                0x0000a414                FTP_RenameFile
                0x0000a448                FTP_RemoveFile
                0x0000a47c                FTP_PutFile
                0x0000a4cc                FTP_GetFile
                0x0000a550                FTP_GetCurrentDir
                0x0000a584                FTP_ChangeDir
                0x0000a5b8                FTP_Disconnect
                0x0000a5e8                FTP_Connect
                0x0000a6c0                FTPES_Connect
                0x0000a714                FTPS_Connect
 .text          0x0000a768      0xf0c C:/Program Files/TeliumSDK/SDK 9.8.0/SDK/lib_gnu_434/FTP_.lib(FTPC.o)
                0x0000a768                FtpcOpen
                0x0000a7c4                ngFtpcOpen
                0x0000a824                FtpcSSLGetHandles
                0x0000a87c                ngFtpcClose
                0x0000a8cc                ngFtpcCloseData
                0x0000a91c                ngFtpcChdir
                0x0000a970                ngFtpcUnlink
                0x0000a9c4                ngFtpcMkdir
                0x0000aa18                ngFtpcRmdir
                0x0000aa6c                ngFtpcGetcwd
                0x0000aac4                ngFtpcRename
                0x0000ab1c                ngFtpcList
                0x0000ab70                ngFtpcFullList
                0x0000abc4                ngFtpcGet
                0x0000ac18                ngFtpcPut
                0x0000ac6c                ngFtpcAppend
                0x0000acc0                ngFtpcListData
                0x0000ad0c                ngFtpcGetData
                0x0000ad64                ngFtpcPutData
                0x0000adbc                ngFtpcGetFile
                0x0000ae14                ngFtpcPutFile
                0x0000ae6c                ngFtpcAppendFile
                0x0000aec4                ngFtpcStatus
                0x0000af14                ngFtpcNoop
                0x0000af64                ngFtpcSyst
                0x0000afb0                ngFtpcType
                0x0000b008                ngFtpcProt
                0x0000b058                ngFtpcProt2
                0x0000b0b0                ngFtpcCcc
                0x0000b100                ngFtpcAuth
                0x0000b15c                ngFtpcPbsz
                0x0000b1ac                ngFtpcPasv
                0x0000b1fc                ngFtpcInit
                0x0000b250                ngFtpcPoll
                0x0000b2a0                ngFtpcAbort
                0x0000b2f0                FTP_FsActivate
                0x0000b348                FTP_FsInit
                0x0000b390                FtpcOpen2
                0x0000b438                FtpcOpenExplicitSSL
                0x0000b4b4                FtpcOpenSSL
                0x0000b530                ssllib_close_for_ftps
                0x0000b55c                ftpclib_close
                0x0000b588                ssllib_open_for_ftps
                0x0000b600                ftpclib_open
 .text          0x0000b674      0x678 C:/Program Files/TeliumSDK/SDK 9.8.0/SDK/lib_gnu_434/IP_.lib(IP.o)
                0x0000b674                __inet_aton
                0x0000b774                __DeleteRoute
                0x0000b79c                __AddRoute
                0x0000b7c4                __SetDefaultRoute
                0x0000b7ec                __GetDefaultRoute
                0x0000b818                GetErrno
                0x0000b840                gethostbyname_r
                0x0000b870                gethostbyaddr_r
                0x0000b8ac                setsockopt
                0x0000b8dc                sendto
                0x0000b910                selectsocket
                0x0000b940                recvfrom
                0x0000b974                __Ping
                0x0000bb34                getsockopt
                0x0000bb64                fcntlsocket
                0x0000bb98                ResolverSetOption
                0x0000bbc0                ResolverGetOption
                0x0000bbe8                EthernetSetOption
                0x0000bc18                EthernetGetOption
                0x0000bc48                __inet_ntoa
                0x0000bc9c                __inet_addr
                0x0000bcc4                SetErrno
 .text          0x0000bcec      0x13c C:/Program Files/TeliumSDK/SDK 9.8.0/SDK/lib_gnu_434/IP_.lib(DNS.o)
                0x0000bcec                DNS_GetDomainName
                0x0000bd88                DNS_GetIpAddress
 .text          0x0000be28      0xcdc C:/Program Files/TeliumSDK/SDK 9.8.0/SDK/lib_gnu_434/IP_.lib(DefaultOptions.o)
                0x0000be28                __SaveDefaultOptions
                0x0000be9c                __GetDefaultOption
                0x0000c29c                __SetDefaultOption
                0x0000ca04                __UnloadDefaultOptions
                0x0000ca70                __LoadDefaultOptions
 .text          0x0000cb04     0x16a4 C:/Program Files/TeliumSDK/SDK 9.8.0/SDK/lib_gnu_434/IP_.lib(EthernetConfig.o)
                0x0000d21c                _CheckBT_KnownBases
                0x0000d3ac                EthernetGetBluetoothBaseStatus
                0x0000d454                ethernet_conf_save
                0x0000d5ac                __CheckBT_IsBaseAvailable
                0x0000d724                ethernet_conf_free
                0x0000df3c                ethernet_conf_load
                0x0000dff8                ethernet_conf_init
 .text          0x0000e1a8      0x2d8 C:/Program Files/TeliumSDK/SDK 9.8.0/SDK/lib_gnu_434/IP_.lib(WifiConfig.o)
                0x0000e1a8                wifi_conf_init
                0x0000e23c                wifi_conf_free
                0x0000e25c                wifi_conf_save
                0x0000e344                wifi_conf_load
 .text          0x0000e480       0xc0 C:/Program Files/TeliumSDK/SDK 9.8.0/SDK/lib_gnu_434/libcpatch.o
                0x0000e480                _calloc_r
                0x0000e4d0                _free_r
                0x0000e4ec                _malloc_r
                0x0000e514                _realloc_r
 .text          0x0000e540       0x84 C:/Program Files/TeliumSDK/SDK 9.8.0/SDK/lib_gnu_434/eft30.lib(extens280.o)
                0x0000e540                USR_ServiceCall
 .text          0x0000e5c4       0x10 C:/Program Files/TeliumSDK/SDK 9.8.0/SDK/lib_gnu_434/trap.lib(trap_13D8_inet_addr.o)
                0x0000e5c4                inet_addr
 .text          0x0000e5d4       0x10 C:/Program Files/TeliumSDK/SDK 9.8.0/SDK/lib_gnu_434/trap.lib(trap_13DC_PppSetOption.o)
                0x0000e5d4                PppSetOption
 .text          0x0000e5e4       0x10 C:/Program Files/TeliumSDK/SDK 9.8.0/SDK/lib_gnu_434/trap.lib(trap_13E1_fcntlsocketSWI.o)
                0x0000e5e4                fcntlsocketSWI
 .text          0x0000e5f4       0x10 C:/Program Files/TeliumSDK/SDK 9.8.0/SDK/lib_gnu_434/trap.lib(trap_13E2_getsockoptSWI.o)
                0x0000e5f4                getsockoptSWI
 .text          0x0000e604       0x10 C:/Program Files/TeliumSDK/SDK 9.8.0/SDK/lib_gnu_434/trap.lib(trap_13E3_recvfromSWI.o)
                0x0000e604                recvfromSWI
 .text          0x0000e614       0x10 C:/Program Files/TeliumSDK/SDK 9.8.0/SDK/lib_gnu_434/trap.lib(trap_13E4_selectsocketSWI.o)
                0x0000e614                selectsocketSWI
 .text          0x0000e624       0x10 C:/Program Files/TeliumSDK/SDK 9.8.0/SDK/lib_gnu_434/trap.lib(trap_13E5_sendtoSWI.o)
                0x0000e624                sendtoSWI
 .text          0x0000e634       0x10 C:/Program Files/TeliumSDK/SDK 9.8.0/SDK/lib_gnu_434/trap.lib(trap_13E6_setsockoptSWI.o)
                0x0000e634                setsockoptSWI
 .text          0x0000e644       0x10 C:/Program Files/TeliumSDK/SDK 9.8.0/SDK/lib_gnu_434/trap.lib(trap_13E7_ngOSGetErrno.o)
                0x0000e644                ngOSGetErrno
 .text          0x0000e654       0x10 C:/Program Files/TeliumSDK/SDK 9.8.0/SDK/lib_gnu_434/trap.lib(trap_13E8_ngOSSetErrno.o)
                0x0000e654                ngOSSetErrno
 .text          0x0000e664       0x10 C:/Program Files/TeliumSDK/SDK 9.8.0/SDK/lib_gnu_434/trap.lib(trap_13E9_ngResolvSetOption.o)
                0x0000e664                ngResolvSetOption
 .text          0x0000e674       0x10 C:/Program Files/TeliumSDK/SDK 9.8.0/SDK/lib_gnu_434/trap.lib(trap_13EA_ngResolvGetOption.o)
                0x0000e674                ngResolvGetOption
 .text          0x0000e684       0x10 C:/Program Files/TeliumSDK/SDK 9.8.0/SDK/lib_gnu_434/trap.lib(trap_13ED_gethostbyaddr_rSWI.o)
                0x0000e684                gethostbyaddr_rSWI
 .text          0x0000e694       0x10 C:/Program Files/TeliumSDK/SDK 9.8.0/SDK/lib_gnu_434/trap.lib(trap_13EE_gethostbyname_rSWI.o)
                0x0000e694                gethostbyname_rSWI
 .text          0x0000e6a4       0x10 C:/Program Files/TeliumSDK/SDK 9.8.0/SDK/lib_gnu_434/trap.lib(trap_141D_ngRouteAdd.o)
                0x0000e6a4                ngRouteAdd
 .text          0x0000e6b4       0x10 C:/Program Files/TeliumSDK/SDK 9.8.0/SDK/lib_gnu_434/trap.lib(trap_141E_ngRouteDelete.o)
                0x0000e6b4                ngRouteDelete
 .text          0x0000e6c4       0x10 C:/Program Files/TeliumSDK/SDK 9.8.0/SDK/lib_gnu_434/trap.lib(trap_141F_ngRouteDefault.o)
                0x0000e6c4                ngRouteDefault
 .text          0x0000e6d4       0x10 C:/Program Files/TeliumSDK/SDK 9.8.0/SDK/lib_gnu_434/trap.lib(trap_1426_get_tick_counter.o)
                0x0000e6d4                get_tick_counter
 .text          0x0000e6e4       0x10 C:/Program Files/TeliumSDK/SDK 9.8.0/SDK/lib_gnu_434/trap.lib(trap_142B_EthIfControl.o)
                0x0000e6e4                EthIfControl
 .text          0x0000e6f4      0x3bc C:/Program Files/TeliumSDK/SDK 9.8.0/SDK/lib_gnu_434/AVL.lib(Proxy.o)
                0x0000e6f4                TlvTree_Copy
                0x0000e71c                TlvTree_SetTag
                0x0000e744                TlvTree_SetDataInteger
                0x0000e77c                TlvTree_SetData
                0x0000e7a4                TlvTree_SetDataString
                0x0000e7dc                TlvTree_GetData
                0x0000e804                TlvTree_GetLength
                0x0000e82c                TlvTree_GetTag
                0x0000e854                TlvTree_GetNext
                0x0000e87c                TlvTree_GetParent
                0x0000e8a4                TlvTree_GetFirstChild
                0x0000e8cc                TlvTree_Iterate
                0x0000e8fc                TlvTree_Find
                0x0000e924                TlvTree_Unserialize
                0x0000e94c                TlvTree_GetSerializationSize
                0x0000e974                TlvTree_Serialize
                0x0000e99c                TlvTree_Release
                0x0000e9c4                TlvTree_Graft
                0x0000e9ec                TlvTree_AddChildString
                0x0000ea28                TlvTree_AddChildInteger
                0x0000ea60                TlvTree_AddChild
                0x0000ea88                TlvTree_New
 .text          0x0000eab0       0xec C:/Program Files/TeliumSDK/SDK 9.8.0/SDK/lib_gnu_434/AVL.lib(Serializer.o)
                0x0000eab0                __TlvTree_GetSerializationSize
                0x0000eaec                __TlvTree_Unserialize
                0x0000eb54                __TlvTree_Serialize
 .text          0x0000eb9c      0x38c C:/Program Files/TeliumSDK/SDK 9.8.0/SDK/lib_gnu_434/AVL.lib(Serializer_Default.o)
                0x0000ec7c                __TlvTree_Unserialize_Default
                0x0000eda4                __TlvTree_GetSerializationSize_Default
                0x0000ee00                __TlvTree_Serialize_Default
 .text          0x0000ef28      0x8bc C:/Program Files/TeliumSDK/SDK 9.8.0/SDK/lib_gnu_434/AVL.lib(Serializer_Xml.o)
                0x0000efb4                __TlvTree_Unserialize_Xml
                0x0000f430                __TlvTree_GetSerializationSize_Xml
                0x0000f4d4                __TlvTree_Serialize_Xml
 .text          0x0000f7e4      0x1d8 C:/Program Files/TeliumSDK/SDK 9.8.0/SDK/lib_gnu_434/AVL.lib(XMLs_ProcessData.o)
                0x0000f7e4                XMLs_ProcessData
 .text          0x0000f9bc      0x194 C:/Program Files/TeliumSDK/SDK 9.8.0/SDK/lib_gnu_434/AVL.lib(XMLs_Common.o)
                0x0000f9bc                XMLs_CheckHandle
                0x0000f9f0                XMLs_Abort
                0x0000fa38                XMLs_GetParsingState
                0x0000fa94                XMLs_SetUserData
                0x0000fadc                XMLs_GetUserData
                0x0000fb20                XMLstr_Set
 .text          0x0000fb50      0x110 C:/Program Files/TeliumSDK/SDK 9.8.0/SDK/lib_gnu_434/AVL.lib(XMLs_Deprecated.o)
                0x0000fb50                XMLs_Parse
                0x0000fbcc                XMLs_ParserClose
                0x0000fc14                XMLs_ParserOpen
 .text          0x0000fc60      0x7f0 C:/Program Files/TeliumSDK/SDK 9.8.0/SDK/lib_gnu_434/AVL.lib(XMLs_Parser_Deprecated.o)
                0x0000fe30                XMLgr_Document_Deprecated
 .text          0x00010450      0x510 C:/Program Files/TeliumSDK/SDK 9.8.0/SDK/lib_gnu_434/AVL.lib(Internal.o)
                0x00010450                __TlvTree_SetTag
                0x00010474                __TlvTree_Graft
                0x000104d8                __TlvTree_GetFirstChild
                0x000104fc                __TlvTree_GetParent
                0x00010520                __TlvTree_GetNext
                0x00010544                __TlvTree_GetTag
                0x00010568                __TlvTree_GetLength
                0x00010598                __TlvTree_GetData
                0x000105bc                __TlvTree_RemoveChild
                0x00010620                __TlvTree_GetNextNode
                0x000106b8                __TlvTree_Find
                0x00010714                __TlvTree_DeleteNode
                0x0001075c                __TlvTree_Release
                0x000107ac                __TlvTree_NewNode
                0x000107f0                __TlvTree_New
                0x0001081c                __TlvTree_SetData
                0x0001088c                __TlvTree_AddChild
                0x000108dc                __TlvTree_Copy
 .text          0x00010960      0x2d0 C:/Program Files/TeliumSDK/SDK 9.8.0/SDK/lib_gnu_434/dll_wifi.lib(wifi.o)
                0x00010960                wifilib_close
                0x00010970                wifilib_open
 .text          0x00010c30       0x3c C:/Program Files/TeliumSDK/SDK 9.8.0/SDK/lib_gnu_434/dll_wifi.lib(wifi1.o)
                0x00010c30                Wifi_IsDevicePresent
                0x00010c4c                lib_trace_string
 .text          0x00010c6c       0x20 C:/Program Files/TeliumSDK/SDK 9.8.0/SDK/lib_gnu_434/dll_wifi.lib(wifi2.o)
                0x00010c6c                Wifi_IsConnected
 .text          0x00010c8c       0x1c C:/Program Files/TeliumSDK/SDK 9.8.0/SDK/lib_gnu_434/dll_wifi.lib(wifi3.o)
                0x00010c8c                Wifi_Essid
 .text          0x00010ca8       0x1c C:/Program Files/TeliumSDK/SDK 9.8.0/SDK/lib_gnu_434/dll_wifi.lib(wifi4.o)
                0x00010ca8                Wifi_Bssid
 .text          0x00010cc4       0x20 C:/Program Files/TeliumSDK/SDK 9.8.0/SDK/lib_gnu_434/dll_wifi.lib(wifi5.o)
                0x00010cc4                Wifi_RSSI
 .text          0x00010ce4       0x20 C:/Program Files/TeliumSDK/SDK 9.8.0/SDK/lib_gnu_434/dll_wifi.lib(wifi6.o)
                0x00010ce4                Wifi_SignalIndication
 .text          0x00010d04       0x1c C:/Program Files/TeliumSDK/SDK 9.8.0/SDK/lib_gnu_434/dll_wifi.lib(wifi7.o)
                0x00010d04                Wifi_GetMacAddress
 .text          0x00010d20       0x1c C:/Program Files/TeliumSDK/SDK 9.8.0/SDK/lib_gnu_434/dll_wifi.lib(wifi8.o)
                0x00010d20                Wifi_GetIpAddress
 .text          0x00010d3c       0x1c C:/Program Files/TeliumSDK/SDK 9.8.0/SDK/lib_gnu_434/dll_wifi.lib(wifi9.o)
                0x00010d3c                Wifi_GetNetmask
 .text          0x00010d58       0x1c C:/Program Files/TeliumSDK/SDK 9.8.0/SDK/lib_gnu_434/dll_wifi.lib(wifi10.o)
                0x00010d58                Wifi_GetDNS1
 .text          0x00010d74       0x1c C:/Program Files/TeliumSDK/SDK 9.8.0/SDK/lib_gnu_434/dll_wifi.lib(wifi11.o)
                0x00010d74                Wifi_GetDNS2
 .text          0x00010d90       0x20 C:/Program Files/TeliumSDK/SDK 9.8.0/SDK/lib_gnu_434/dll_wifi.lib(wifi12.o)
                0x00010d90                Wifi_GetBootproto
 .text          0x00010db0       0x20 C:/Program Files/TeliumSDK/SDK 9.8.0/SDK/lib_gnu_434/dll_wifi.lib(wifi13.o)
                0x00010db0                Wifi_GetDHCPGateway
 .text          0x00010dd0       0x20 C:/Program Files/TeliumSDK/SDK 9.8.0/SDK/lib_gnu_434/dll_wifi.lib(wifi14.o)
                0x00010dd0                Wifi_GetDHCPDNS
 .text          0x00010df0       0x30 C:/Program Files/TeliumSDK/SDK 9.8.0/SDK/lib_gnu_434/dll_wifi.lib(wifi15.o)
                0x00010df0                Wifi_ProfileAdd
 .text          0x00010e20       0x1c C:/Program Files/TeliumSDK/SDK 9.8.0/SDK/lib_gnu_434/dll_wifi.lib(wifi16.o)
                0x00010e20                Wifi_ProfileSetActive
 .text          0x00010e3c       0x30 C:/Program Files/TeliumSDK/SDK 9.8.0/SDK/lib_gnu_434/dll_wifi.lib(wifi17.o)
                0x00010e3c                Wifi_ProfileModify
 .text          0x00010e6c       0x1c C:/Program Files/TeliumSDK/SDK 9.8.0/SDK/lib_gnu_434/dll_wifi.lib(wifi18.o)
                0x00010e6c                Wifi_ProfileRemove
 .text          0x00010e88       0x20 C:/Program Files/TeliumSDK/SDK 9.8.0/SDK/lib_gnu_434/dll_wifi.lib(wifi19.o)
                0x00010e88                Wifi_AccessPointScan
 .text          0x00010ea8       0x1c C:/Program Files/TeliumSDK/SDK 9.8.0/SDK/lib_gnu_434/dll_wifi.lib(wifi20.o)
                0x00010ea8                Wifi_AccessPointList
 .text          0x00010ec4       0x1c C:/Program Files/TeliumSDK/SDK 9.8.0/SDK/lib_gnu_434/dll_wifi.lib(wifi21.o)
                0x00010ec4                Wifi_ProfileGetList
 .text          0x00010ee0       0x20 C:/Program Files/TeliumSDK/SDK 9.8.0/SDK/lib_gnu_434/dll_wifi.lib(wifi22.o)
                0x00010ee0                Wifi_GetKeepAlive
 .text          0x00010f00       0x1c C:/Program Files/TeliumSDK/SDK 9.8.0/SDK/lib_gnu_434/dll_wifi.lib(wifi23.o)
                0x00010f00                Wifi_SetKeepAlive
 .text          0x00010f1c       0x20 C:/Program Files/TeliumSDK/SDK 9.8.0/SDK/lib_gnu_434/dll_wifi.lib(wifi24.o)
                0x00010f1c                Wifi_GetScanResults
 .text          0x00010f3c       0x1c C:/Program Files/TeliumSDK/SDK 9.8.0/SDK/lib_gnu_434/dll_wifi.lib(wifi25.o)
                0x00010f3c                Wifi_SetIpAddress
 .text          0x00010f58       0x1c C:/Program Files/TeliumSDK/SDK 9.8.0/SDK/lib_gnu_434/dll_wifi.lib(wifi26.o)
                0x00010f58                Wifi_SetNetmask
 .text          0x00010f74       0x1c C:/Program Files/TeliumSDK/SDK 9.8.0/SDK/lib_gnu_434/dll_wifi.lib(wifi27.o)
                0x00010f74                Wifi_SetDNS1
 .text          0x00010f90       0x1c C:/Program Files/TeliumSDK/SDK 9.8.0/SDK/lib_gnu_434/dll_wifi.lib(wifi28.o)
                0x00010f90                Wifi_SetDNS2
 .text          0x00010fac       0x1c C:/Program Files/TeliumSDK/SDK 9.8.0/SDK/lib_gnu_434/dll_wifi.lib(wifi29.o)
                0x00010fac                Wifi_SetBootproto
 .text          0x00010fc8       0x1c C:/Program Files/TeliumSDK/SDK 9.8.0/SDK/lib_gnu_434/dll_wifi.lib(wifi30.o)
                0x00010fc8                Wifi_SetDHCPGateway
 .text          0x00010fe4       0x1c C:/Program Files/TeliumSDK/SDK 9.8.0/SDK/lib_gnu_434/dll_wifi.lib(wifi31.o)
                0x00010fe4                Wifi_SetDHCPDNS
 .text          0x00011000       0x1c C:/Program Files/TeliumSDK/SDK 9.8.0/SDK/lib_gnu_434/dll_wifi.lib(wifi32.o)
                0x00011000                Wifi_GetGateway
 .text          0x0001101c       0x1c C:/Program Files/TeliumSDK/SDK 9.8.0/SDK/lib_gnu_434/dll_wifi.lib(wifi33.o)
                0x0001101c                Wifi_SetGateway
 .text          0x00011038       0x20 C:/Program Files/TeliumSDK/SDK 9.8.0/SDK/lib_gnu_434/dll_wifi.lib(wifi34.o)
                0x00011038                Wifi_GetRoamingPolicy
 .text          0x00011058       0x1c C:/Program Files/TeliumSDK/SDK 9.8.0/SDK/lib_gnu_434/dll_wifi.lib(wifi35.o)
                0x00011058                Wifi_SeRoamingPolicy
 .text          0x00011074       0x10 C:/Program Files/TeliumSDK/SDK 9.8.0/SDK/lib_gnu_434/trap.lib(trap_13C1_trace.o)
                0x00011074                trace
 .text          0x00011084       0x28 C:/Program Files/Ingenico/IngeDev_7/plugins/com.ingenico.ingedev.telium.bin.win32.gnuarm.v434_7.16.0.6/os/win32/GNUARM/4.3.4/arm-elf/lib/thumb/soft/interwork/libc.a(lib_a-memcmp.o)
                0x00011084                memcmp
 .text          0x000110ac       0x1c C:/Program Files/Ingenico/IngeDev_7/plugins/com.ingenico.ingedev.telium.bin.win32.gnuarm.v434_7.16.0.6/os/win32/GNUARM/4.3.4/arm-elf/lib/thumb/soft/interwork/libc.a(lib_a-memcpy.o)
                0x000110ac                memcpy
 .text          0x000110c8       0x3c C:/Program Files/Ingenico/IngeDev_7/plugins/com.ingenico.ingedev.telium.bin.win32.gnuarm.v434_7.16.0.6/os/win32/GNUARM/4.3.4/arm-elf/lib/thumb/soft/interwork/libc.a(lib_a-memmove.o)
                0x000110c8                memmove
 .text          0x00011104       0x10 C:/Program Files/Ingenico/IngeDev_7/plugins/com.ingenico.ingedev.telium.bin.win32.gnuarm.v434_7.16.0.6/os/win32/GNUARM/4.3.4/arm-elf/lib/thumb/soft/interwork/libc.a(lib_a-memset.o)
                0x00011104                memset
 .text          0x00011114       0xc4 C:/Program Files/Ingenico/IngeDev_7/plugins/com.ingenico.ingedev.telium.bin.win32.gnuarm.v434_7.16.0.6/os/win32/GNUARM/4.3.4/arm-elf/lib/thumb/soft/interwork/libc.a(lib_a-snprintf.o)
                0x00011114                snprintf
                0x00011178                _snprintf_r
 .text          0x000111d8       0x24 C:/Program Files/Ingenico/IngeDev_7/plugins/com.ingenico.ingedev.telium.bin.win32.gnuarm.v434_7.16.0.6/os/win32/GNUARM/4.3.4/arm-elf/lib/thumb/soft/interwork/libc.a(lib_a-strcat.o)
                0x000111d8                strcat
 .text          0x000111fc       0x1c C:/Program Files/Ingenico/IngeDev_7/plugins/com.ingenico.ingedev.telium.bin.win32.gnuarm.v434_7.16.0.6/os/win32/GNUARM/4.3.4/arm-elf/lib/thumb/soft/interwork/libc.a(lib_a-strchr.o)
                0x000111fc                strchr
 .text          0x00011218       0x14 C:/Program Files/Ingenico/IngeDev_7/plugins/com.ingenico.ingedev.telium.bin.win32.gnuarm.v434_7.16.0.6/os/win32/GNUARM/4.3.4/arm-elf/lib/thumb/soft/interwork/libc.a(lib_a-strcmp.o)
                0x00011218                strcmp
 .text          0x0001122c       0x10 C:/Program Files/Ingenico/IngeDev_7/plugins/com.ingenico.ingedev.telium.bin.win32.gnuarm.v434_7.16.0.6/os/win32/GNUARM/4.3.4/arm-elf/lib/thumb/soft/interwork/libc.a(lib_a-strcpy.o)
                0x0001122c                strcpy
 .text          0x0001123c       0x10 C:/Program Files/Ingenico/IngeDev_7/plugins/com.ingenico.ingedev.telium.bin.win32.gnuarm.v434_7.16.0.6/os/win32/GNUARM/4.3.4/arm-elf/lib/thumb/soft/interwork/libc.a(lib_a-strlen.o)
                0x0001123c                strlen
 .text          0x0001124c       0x38 C:/Program Files/Ingenico/IngeDev_7/plugins/com.ingenico.ingedev.telium.bin.win32.gnuarm.v434_7.16.0.6/os/win32/GNUARM/4.3.4/arm-elf/lib/thumb/soft/interwork/libc.a(lib_a-strncat.o)
                0x0001124c                strncat
 .text          0x00011284       0x34 C:/Program Files/Ingenico/IngeDev_7/plugins/com.ingenico.ingedev.telium.bin.win32.gnuarm.v434_7.16.0.6/os/win32/GNUARM/4.3.4/arm-elf/lib/thumb/soft/interwork/libc.a(lib_a-strncpy.o)
                0x00011284                strncpy
 .text          0x000112b8       0x34 C:/Program Files/Ingenico/IngeDev_7/plugins/com.ingenico.ingedev.telium.bin.win32.gnuarm.v434_7.16.0.6/os/win32/GNUARM/4.3.4/arm-elf/lib/thumb/soft/interwork/libc.a(lib_a-strstr.o)
                0x000112b8                strstr
 .text          0x000112ec       0x18 C:/Program Files/Ingenico/IngeDev_7/plugins/com.ingenico.ingedev.telium.bin.win32.gnuarm.v434_7.16.0.6/os/win32/GNUARM/4.3.4/arm-elf/lib/thumb/soft/interwork/libc.a(lib_a-strtok.o)
                0x000112ec                strtok
 .text          0x00011304       0x78 C:/Program Files/Ingenico/IngeDev_7/plugins/com.ingenico.ingedev.telium.bin.win32.gnuarm.v434_7.16.0.6/os/win32/GNUARM/4.3.4/arm-elf/lib/thumb/soft/interwork/libc.a(lib_a-strtok_r.o)
                0x00011304                __strtok_r
                0x00011370                strtok_r
 .text          0x0001137c      0x128 C:/Program Files/Ingenico/IngeDev_7/plugins/com.ingenico.ingedev.telium.bin.win32.gnuarm.v434_7.16.0.6/os/win32/GNUARM/4.3.4/arm-elf/lib/thumb/soft/interwork/libc.a(lib_a-strtoul.o)
                0x0001137c                _strtoul_r
                0x00011484                strtoul
 .text          0x000114a4      0xf14 C:/Program Files/Ingenico/IngeDev_7/plugins/com.ingenico.ingedev.telium.bin.win32.gnuarm.v434_7.16.0.6/os/win32/GNUARM/4.3.4/arm-elf/lib/thumb/soft/interwork/libc.a(lib_a-svfprintf.o)
                0x000114a4                _svfprintf_r
 .text          0x000123b8        0x0 C:/Program Files/Ingenico/IngeDev_7/plugins/com.ingenico.ingedev.telium.bin.win32.gnuarm.v434_7.16.0.6/os/win32/GNUARM/4.3.4/arm-elf/lib/thumb/soft/interwork/libc.a(lib_a-ctype_.o)
 .text          0x000123b8      0xd4c C:/Program Files/Ingenico/IngeDev_7/plugins/com.ingenico.ingedev.telium.bin.win32.gnuarm.v434_7.16.0.6/os/win32/GNUARM/4.3.4/arm-elf/lib/thumb/soft/interwork/libc.a(lib_a-dtoa.o)
                0x000124f8                _dtoa_r
 .text          0x00013104        0x0 C:/Program Files/Ingenico/IngeDev_7/plugins/com.ingenico.ingedev.telium.bin.win32.gnuarm.v434_7.16.0.6/os/win32/GNUARM/4.3.4/arm-elf/lib/thumb/soft/interwork/libc.a(lib_a-impure.o)
 .text          0x00013104       0x84 C:/Program Files/Ingenico/IngeDev_7/plugins/com.ingenico.ingedev.telium.bin.win32.gnuarm.v434_7.16.0.6/os/win32/GNUARM/4.3.4/arm-elf/lib/thumb/soft/interwork/libc.a(lib_a-locale.o)
                0x00013104                __locale_charset
                0x0001310c                __locale_msgcharset
                0x00013114                __locale_cjk_lang
                0x00013118                _localeconv_r
                0x00013120                localeconv
                0x00013128                _setlocale_r
                0x0001316c                setlocale
 .text          0x00013188       0x18 C:/Program Files/Ingenico/IngeDev_7/plugins/com.ingenico.ingedev.telium.bin.win32.gnuarm.v434_7.16.0.6/os/win32/GNUARM/4.3.4/arm-elf/lib/thumb/soft/interwork/libc.a(lib_a-memchr.o)
                0x00013188                memchr
 .text          0x000131a0      0x8e8 C:/Program Files/Ingenico/IngeDev_7/plugins/com.ingenico.ingedev.telium.bin.win32.gnuarm.v434_7.16.0.6/os/win32/GNUARM/4.3.4/arm-elf/lib/thumb/soft/interwork/libc.a(lib_a-mprec.o)
                0x000131a0                _Bfree
                0x000131b8                __hi0bits
                0x00013200                __lo0bits
                0x00013264                __mcmp
                0x000132a4                __ulp
                0x000132ec                __b2d
                0x000133a8                __ratio
                0x000133fc                _mprec_log10
                0x0001343c                __copybits
                0x00013470                __any_on
                0x000134c0                _Balloc
                0x00013514                __d2b
                0x000135dc                __mdiff
                0x000136f0                __lshift
                0x00013788                __multiply
                0x000138c4                __i2b
                0x000138dc                __multadd
                0x00013968                __pow5mult
                0x00013a04                __s2b
 .text          0x00013a88       0x7c C:/Program Files/Ingenico/IngeDev_7/plugins/com.ingenico.ingedev.telium.bin.win32.gnuarm.v434_7.16.0.6/os/win32/GNUARM/4.3.4/arm-elf/lib/thumb/soft/interwork/libc.a(lib_a-s_fpclassify.o)
                0x00013a88                __fpclassifyd
 .text          0x00013b04      0x8fc C:/Program Files/Ingenico/IngeDev_7/plugins/com.ingenico.ingedev.telium.bin.win32.gnuarm.v434_7.16.0.6/os/win32/GNUARM/4.3.4/arm-elf/lib/thumb/soft/interwork/libc.a(lib_a-svfiprintf.o)
                0x00013b04                __ssprint_r
                0x00013c18                _svfiprintf_r
 .text          0x00014400       0x8c C:/Program Files/Ingenico/IngeDev_7/plugins/com.ingenico.ingedev.telium.bin.win32.gnuarm.v434_7.16.0.6/os/win32/GNUARM/4.3.4/lib/gcc/arm-elf/4.3.4/thumb/soft/interwork/libgcc.a(_udivsi3.o)
                0x00014400                __udivsi3
                0x00014400                __aeabi_uidiv
                0x0001447c                __aeabi_uidivmod
 .text          0x0001448c       0xa4 C:/Program Files/Ingenico/IngeDev_7/plugins/com.ingenico.ingedev.telium.bin.win32.gnuarm.v434_7.16.0.6/os/win32/GNUARM/4.3.4/lib/gcc/arm-elf/4.3.4/thumb/soft/interwork/libgcc.a(_divsi3.o)
                0x0001448c                __aeabi_idiv
                0x0001448c                __divsi3
                0x00014520                __aeabi_idivmod
 .text          0x00014530       0xc8 C:/Program Files/Ingenico/IngeDev_7/plugins/com.ingenico.ingedev.telium.bin.win32.gnuarm.v434_7.16.0.6/os/win32/GNUARM/4.3.4/lib/gcc/arm-elf/4.3.4/thumb/soft/interwork/libgcc.a(_umodsi3.o)
                0x00014530                __umodsi3
 .text          0x000145f8       0xd8 C:/Program Files/Ingenico/IngeDev_7/plugins/com.ingenico.ingedev.telium.bin.win32.gnuarm.v434_7.16.0.6/os/win32/GNUARM/4.3.4/lib/gcc/arm-elf/4.3.4/thumb/soft/interwork/libgcc.a(_modsi3.o)
                0x000145f8                __modsi3
 .text          0x000146d0        0x4 C:/Program Files/Ingenico/IngeDev_7/plugins/com.ingenico.ingedev.telium.bin.win32.gnuarm.v434_7.16.0.6/os/win32/GNUARM/4.3.4/lib/gcc/arm-elf/4.3.4/thumb/soft/interwork/libgcc.a(_dvmd_tls.o)
                0x000146d0                __aeabi_ldiv0
                0x000146d0                __div0
                0x000146d0                __aeabi_idiv0
 .text          0x000146d4      0x430 C:/Program Files/Ingenico/IngeDev_7/plugins/com.ingenico.ingedev.telium.bin.win32.gnuarm.v434_7.16.0.6/os/win32/GNUARM/4.3.4/lib/gcc/arm-elf/4.3.4/thumb/soft/interwork/libgcc.a(_addsubdf3.o)
                0x000146d4                __aeabi_drsub
                0x000146dc                __subdf3
                0x000146dc                __aeabi_dsub
                0x000146e0                __aeabi_dadd
                0x000146e0                __adddf3
                0x000149f0                __aeabi_ui2d
                0x000149f0                __floatunsidf
                0x00014a18                __floatsidf
                0x00014a18                __aeabi_i2d
                0x00014a44                __extendsfdf2
                0x00014a44                __aeabi_f2d
                0x00014a84                __aeabi_ul2d
                0x00014a84                __floatundidf
                0x00014a98                __aeabi_l2d
                0x00014a98                __floatdidf
 .text          0x00014b04      0x49c C:/Program Files/Ingenico/IngeDev_7/plugins/com.ingenico.ingedev.telium.bin.win32.gnuarm.v434_7.16.0.6/os/win32/GNUARM/4.3.4/lib/gcc/arm-elf/4.3.4/thumb/soft/interwork/libgcc.a(_muldivdf3.o)
                0x00014b04                __aeabi_dmul
                0x00014b04                __muldf3
                0x00014d94                __aeabi_ddiv
                0x00014d94                __divdf3
 .text          0x00014fa0      0x140 C:/Program Files/Ingenico/IngeDev_7/plugins/com.ingenico.ingedev.telium.bin.win32.gnuarm.v434_7.16.0.6/os/win32/GNUARM/4.3.4/lib/gcc/arm-elf/4.3.4/thumb/soft/interwork/libgcc.a(_cmpdf2.o)
                0x00014fa0                __gtdf2
                0x00014fa0                __gedf2
                0x00014fa8                __ltdf2
                0x00014fa8                __ledf2
                0x00014fb0                __eqdf2
                0x00014fb0                __nedf2
                0x00014fb0                __cmpdf2
                0x00015034                __aeabi_cdrcmple
                0x00015050                __aeabi_cdcmple
                0x00015050                __aeabi_cdcmpeq
                0x00015068                __aeabi_dcmpeq
                0x00015080                __aeabi_dcmplt
                0x00015098                __aeabi_dcmple
                0x000150b0                __aeabi_dcmpge
                0x000150c8                __aeabi_dcmpgt
 .text          0x000150e0       0x5c C:/Program Files/Ingenico/IngeDev_7/plugins/com.ingenico.ingedev.telium.bin.win32.gnuarm.v434_7.16.0.6/os/win32/GNUARM/4.3.4/lib/gcc/arm-elf/4.3.4/thumb/soft/interwork/libgcc.a(_fixdfsi.o)
                0x000150e0                __fixdfsi
                0x000150e0                __aeabi_d2iz
 *(.gnu.linkonce.t.*)
 *(.strings .strings.*)
 *(.glue_7)
 .glue_7        0x0001513c       0x18 linker stubs
                0x0001513c                __SV_read_date_from_arm
                0x00015148                __SystemFioctl_from_arm
 *fill*         0x00015154        0x4 00
 .glue_7.stub   0x00015158       0x60 linker stubs
 *(.glue_7t)
 .glue_7t       0x00000000        0x0 linker stubs
 *(.gcc_except_table)

.vfp11_veneer   0x000151b8        0x0
 .vfp11_veneer  0x00000000        0x0 linker stubs

.v4_bx          0x000151b8        0x0
 .v4_bx         0x00000000        0x0 linker stubs

.eh_frame
 *(.eh_frame)

.jcr
 *(.jcr)

.ctors          0x000151b8        0x0
                0x000151b8                __ctors_start = .
 *(SORT(.ctors.*))
 *(.ctors)
                0x000151b8                __ctors_end = .

.dtors          0x000151b8        0x0
                0x000151b8                __dtors_start = .
 *(SORT(.dtors.*))
 *(.dtors)
                0x000151b8                __dtors_end = .

.rodata         0x000151b8    0x20248
 *(.rodata .rodata.*)
 .rodata.str1.1
                0x000151b8       0x61 Obj/GNU_ARM_DEBUG/Backlight.o
                                 0x66 (size before relaxing)
 .rodata.str1.1
                0x00015219      0x16b Obj/GNU_ARM_DEBUG/Boleto.o
                                0x180 (size before relaxing)
 .rodata        0x00015384    0x1d5f0 Obj/GNU_ARM_DEBUG/Boleto.o
                0x00015494                __boleto__
                0x0002f5f6                __LogoItau__
                0x00031234                pxls_por_letra
                0x00031238                pxls_por_espaco
                0x0003123c                pxls_por_letra_grande
                0x00031240                pxls_por_espaco_grande
                0x00031244                f_0
                0x000312a6                f_1
                0x000312fc                f_2
                0x0003135e                f_3
                0x000313c0                f_4
                0x00031426                f_5
                0x00031488                f_6
                0x000314ea                f_7
                0x0003154c                f_8
                0x000315ae                f_9
                0x00031610                f_A
                0x00031682                f_B
                0x000316f0                f_C
                0x0003175e                f_D
                0x000317cc                f_E
                0x00031836                f_F
                0x0003189c                f_G
                0x0003190e                f_H
                0x00031978                f_I
                0x000319c2                f_J
                0x00031a24                f_K
                0x00031a92                f_L
                0x00031af8                f_M
                0x00031b6e                f_N
                0x00031bd8                f_O
                0x00031c4a                f_P
                0x00031cb4                f_Q
                0x00031d2a                f_R
                0x00031d98                f_S
                0x00031e02                f_T
                0x00031e68                f_U
                0x00031ed2                f_V
                0x00031f44                f_W
                0x00031fc6                f_X
                0x00032030                f_Y
                0x0003209a                f_Z
                0x00032104                f_ponto
                0x0003214a                f_cifrao
                0x000321ac                f_hifen
                0x000321fe                fg_0
                0x00032278                fg_1
                0x000322da                fg_2
                0x00032354                fg_3
                0x000323ca                fg_4
                0x0003244c                fg_5
                0x000324c6                fg_6
                0x0003253c                fg_7
                0x000325b2                fg_8
                0x00032628                fg_9
                0x0003269e                fg_hifen
                0x000326fc                fg_ponto
                0x0003274a                barra_fina_p
                0x000327a8                barra_fina_b
                0x00032806                barra_grossa_p
                0x000328a4                barra_grossa_b
 .rodata.str1.1
                0x00032974      0x171 Obj/GNU_ARM_DEBUG/Conn.o
                                0x186 (size before relaxing)
 .rodata.str1.1
                0x00032ae5       0x95 Obj/GNU_ARM_DEBUG/Dialogs.o
                                 0xae (size before relaxing)
 *fill*         0x00032b7a        0x2 00
 .rodata        0x00032b7c      0x21c Obj/GNU_ARM_DEBUG/Dialogs.o
                0x00032ba0                __LogoBMP_LARG__
                0x00032ba4                __LogoBMP_ALT__
                0x00032ba8                __LogoBMP__
 .rodata.str1.1
                0x00032d98      0x1fa Obj/GNU_ARM_DEBUG/Entry.o
                                0x217 (size before relaxing)
 *fill*         0x00032f92        0x2 00
 .rodata        0x00032f94       0xdc Obj/GNU_ARM_DEBUG/Entry.o
 .rodata.str1.1
                0x00033070       0xb3 Obj/GNU_ARM_DEBUG/File.o
                                 0xd5 (size before relaxing)
 .rodata        0x00033123       0x1f Obj/GNU_ARM_DEBUG/File.o
                0x00033123                dir
                0x00033129                inf_cfg_filename
                0x00033135                inf_prod_filename
 .rodata.str1.1
                0x00033142       0x50 Obj/GNU_ARM_DEBUG/FTP.o
                                 0x65 (size before relaxing)
 .rodata.str1.1
                0x00033192      0x146 Obj/GNU_ARM_DEBUG/GPRS.o
                                0x151 (size before relaxing)
 .rodata.str1.1
                0x000332d8       0xe9 Obj/GNU_ARM_DEBUG/HTTP.o
                                0x105 (size before relaxing)
 .rodata.str1.1
                0x000333c1       0xb4 Obj/GNU_ARM_DEBUG/Inicio.o
                                 0xc3 (size before relaxing)
 .rodata        0x00033475       0x13 Obj/GNU_ARM_DEBUG/Inicio.o
 .rodata        0x00033488       0xac Obj/GNU_ARM_DEBUG/Main.o
 .rodata.str1.1
                0x00033534      0x6f4 Obj/GNU_ARM_DEBUG/Menus.o
                                0x7e7 (size before relaxing)
 .rodata        0x00033c28       0x84 Obj/GNU_ARM_DEBUG/Menus.o
 .rodata.str1.1
                0x00033cac       0x11 Obj/GNU_ARM_DEBUG/NTP.o
 .rodata.str1.1
                0x00033cbd      0x1c5 Obj/GNU_ARM_DEBUG/Sistema.o
                                0x1f1 (size before relaxing)
 *fill*         0x00033e82        0x2 00
 .rodata        0x00033e84       0x74 Obj/GNU_ARM_DEBUG/Sistema.o
 .rodata.str1.1
                0x00033ef8      0x20f Obj/GNU_ARM_DEBUG/Recarga.o
                                0x2a9 (size before relaxing)
 *fill*         0x00034107        0x1 00
 .rodata        0x00034108       0x18 Obj/GNU_ARM_DEBUG/__ing_cguard.o
 .rodata.str1.1
                0x00034120        0xc C:/Program Files/TeliumSDK/SDK 9.8.0/SDK/lib_gnu_434/eft30.lib(extens119.o)
 .rodata.str1.1
                0x0003412c       0x12 C:/Program Files/TeliumSDK/SDK 9.8.0/SDK/lib_gnu_434/eft30.lib(extens134.o)
 .rodata.str1.1
                0x0003413e        0xe C:/Program Files/TeliumSDK/SDK 9.8.0/SDK/lib_gnu_434/eft30.lib(extens201.o)
 .rodata.str1.1
                0x0003414c        0x5 C:/Program Files/TeliumSDK/SDK 9.8.0/SDK/lib_gnu_434/eft30.lib(extens232.o)
 .rodata.str1.1
                0x00034151        0x9 C:/Program Files/TeliumSDK/SDK 9.8.0/SDK/lib_gnu_434/eft30.lib(extens54.o)
 .rodata.str1.1
                0x0003415a       0x1c C:/Program Files/TeliumSDK/SDK 9.8.0/SDK/lib_gnu_434/eft30.lib(param156.o)
 .rodata.str1.1
                0x00034176       0x13 C:/Program Files/TeliumSDK/SDK 9.8.0/SDK/lib_gnu_434/eft30.lib(param17.o)
 .rodata.str1.1
                0x00034189       0x17 C:/Program Files/TeliumSDK/SDK 9.8.0/SDK/lib_gnu_434/eft30.lib(param47.o)
 .rodata.str1.1
                0x000341a0       0x17 C:/Program Files/TeliumSDK/SDK 9.8.0/SDK/lib_gnu_434/eft30.lib(param81.o)
 .rodata.str1.1
                0x000341b7       0x11 C:/Program Files/TeliumSDK/SDK 9.8.0/SDK/lib_gnu_434/eft30.lib(saisie18.o)
 .rodata.str1.1
                0x000341c8        0xc C:/Program Files/TeliumSDK/SDK 9.8.0/SDK/lib_gnu_434/eft30.lib(saisie6.o)
 .rodata.str1.1
                0x000341d4       0x13 C:/Program Files/TeliumSDK/SDK 9.8.0/SDK/lib_gnu_434/eft30.lib(saisie7.o)
 .rodata.str1.1
                0x000341e7       0x18 C:/Program Files/TeliumSDK/SDK 9.8.0/SDK/lib_gnu_434/eft30.lib(saisie8.o)
 .rodata.str1.1
                0x000341ff        0xf C:/Program Files/TeliumSDK/SDK 9.8.0/SDK/lib_gnu_434/eft30.lib(saisie9.o)
 .rodata.str1.1
                0x0003420e        0xd C:/Program Files/TeliumSDK/SDK 9.8.0/SDK/lib_gnu_434/eft30.lib(sv24.o)
 .rodata.str1.1
                0x0003421b        0xe C:/Program Files/TeliumSDK/SDK 9.8.0/SDK/lib_gnu_434/eft30.lib(sv25.o)
 .rodata.str1.1
                0x00000000        0xe C:/Program Files/TeliumSDK/SDK 9.8.0/SDK/lib_gnu_434/eft30.lib(libgr110.o)
                                  0x7 (size before relaxing)
 .rodata.str1.1
                0x00034229        0xc C:/Program Files/TeliumSDK/SDK 9.8.0/SDK/lib_gnu_434/eft30.lib(libgr123.o)
 .rodata.str1.1
                0x00034235        0xe C:/Program Files/TeliumSDK/SDK 9.8.0/SDK/lib_gnu_434/eft30.lib(libgr137.o)
 .rodata.str1.1
                0x00034243       0x1c C:/Program Files/TeliumSDK/SDK 9.8.0/SDK/lib_gnu_434/eft30.lib(libgr25.o)
 .rodata.str1.1
                0x0003425f        0x8 C:/Program Files/TeliumSDK/SDK 9.8.0/SDK/lib_gnu_434/eft30.lib(libgr3.o)
 .rodata.str1.1
                0x00000000        0x8 C:/Program Files/TeliumSDK/SDK 9.8.0/SDK/lib_gnu_434/eft30.lib(libgr33.o)
                                  0xe (size before relaxing)
 .rodata.str1.1
                0x00034267        0x8 C:/Program Files/TeliumSDK/SDK 9.8.0/SDK/lib_gnu_434/eft30.lib(libgr35.o)
 .rodata.str1.1
                0x0003426f        0xe C:/Program Files/TeliumSDK/SDK 9.8.0/SDK/lib_gnu_434/eft30.lib(libgr37.o)
 .rodata.str1.1
                0x0003427d        0xe C:/Program Files/TeliumSDK/SDK 9.8.0/SDK/lib_gnu_434/eft30.lib(libgr41.o)
 .rodata.str1.1
                0x0003428b        0xf C:/Program Files/TeliumSDK/SDK 9.8.0/SDK/lib_gnu_434/eft30.lib(libgr49.o)
 .rodata.str1.1
                0x0003429a       0x14 C:/Program Files/TeliumSDK/SDK 9.8.0/SDK/lib_gnu_434/eft30.lib(libgr50.o)
 .rodata.str1.1
                0x000342ae       0x16 C:/Program Files/TeliumSDK/SDK 9.8.0/SDK/lib_gnu_434/eft30.lib(libgr52.o)
 .rodata.str1.1
                0x00000000       0x16 C:/Program Files/TeliumSDK/SDK 9.8.0/SDK/lib_gnu_434/eft30.lib(libgr7.o)
                                  0xf (size before relaxing)
 .rodata.str1.1
                0x000342c4       0x12 C:/Program Files/TeliumSDK/SDK 9.8.0/SDK/lib_gnu_434/eft30.lib(libgr75.o)
 .rodata.str1.1
                0x000342d6        0xc C:/Program Files/TeliumSDK/SDK 9.8.0/SDK/lib_gnu_434/eft30.lib(libgr81.o)
 .rodata.str1.1
                0x000342e2       0x15 C:/Program Files/TeliumSDK/SDK 9.8.0/SDK/lib_gnu_434/eft30.lib(libgr82.o)
 .rodata.str1.1
                0x000342f7       0x12 C:/Program Files/TeliumSDK/SDK 9.8.0/SDK/lib_gnu_434/eft30.lib(libgr83.o)
 .rodata.str1.1
                0x00034309        0xd C:/Program Files/TeliumSDK/SDK 9.8.0/SDK/lib_gnu_434/eft30.lib(Tools35.o)
 .rodata.str1.1
                0x00034316        0xe C:/Program Files/TeliumSDK/SDK 9.8.0/SDK/lib_gnu_434/eft30.lib(Tools36.o)
 .rodata.str1.1
                0x00034324        0xd C:/Program Files/TeliumSDK/SDK 9.8.0/SDK/lib_gnu_434/eft30.lib(gprs1.o)
 .rodata.str1.1
                0x00034331       0x16 C:/Program Files/TeliumSDK/SDK 9.8.0/SDK/lib_gnu_434/eft30.lib(gprs11.o)
 .rodata.str1.1
                0x00034347       0x13 C:/Program Files/TeliumSDK/SDK 9.8.0/SDK/lib_gnu_434/eft30.lib(gprs13.o)
 .rodata.str1.1
                0x0003435a       0x15 C:/Program Files/TeliumSDK/SDK 9.8.0/SDK/lib_gnu_434/eft30.lib(gprs15.o)
 .rodata.str1.1
                0x0003436f       0x1b C:/Program Files/TeliumSDK/SDK 9.8.0/SDK/lib_gnu_434/eft30.lib(gprs17.o)
 .rodata.str1.1
                0x0003438a        0xa C:/Program Files/TeliumSDK/SDK 9.8.0/SDK/lib_gnu_434/eft30.lib(gprs19.o)
 .rodata.str1.1
                0x00034394        0xc C:/Program Files/TeliumSDK/SDK 9.8.0/SDK/lib_gnu_434/eft30.lib(gprs29.o)
 .rodata.str1.1
                0x000343a0       0x14 C:/Program Files/TeliumSDK/SDK 9.8.0/SDK/lib_gnu_434/eft30.lib(gprs32.o)
 .rodata.str1.1
                0x000343b4       0x1a C:/Program Files/TeliumSDK/SDK 9.8.0/SDK/lib_gnu_434/eft30.lib(hwcnf18.o)
 .rodata.str1.1
                0x00000000        0x6 C:/Program Files/TeliumSDK/SDK 9.8.0/SDK/lib_gnu_434/eft30.lib(gprs_lib.o)
 *fill*         0x000343ce        0x2 00
 .rodata        0x000343d0       0x2c C:/Program Files/TeliumSDK/SDK 9.8.0/SDK/lib_gnu_434/eft30.lib(gprs_lib.o)
 .rodata.str1.1
                0x00000000       0x21 C:/Program Files/TeliumSDK/SDK 9.8.0/SDK/lib_gnu_434/eft30.lib(LibAppli.o)
 .rodata        0x000343fc      0x100 C:/Program Files/TeliumSDK/SDK 9.8.0/SDK/lib_gnu_434/eft30.lib(ctype.o)
                0x000343fc                _ctype2_
 .rodata.str1.1
                0x000344fc        0x8 C:/Program Files/TeliumSDK/SDK 9.8.0/SDK/lib_gnu_434/eft30.lib(extens.o)
 .rodata        0x00034504        0x7 C:/Program Files/TeliumSDK/SDK 9.8.0/SDK/lib_gnu_434/eft30.lib(extens.o)
 .rodata.str1.1
                0x0003450b       0x11 C:/Program Files/TeliumSDK/SDK 9.8.0/SDK/lib_gnu_434/eft30.lib(extens236.o)
 .rodata.str1.1
                0x0003451c       0x12 C:/Program Files/TeliumSDK/SDK 9.8.0/SDK/lib_gnu_434/eft30.lib(extens237.o)
 .rodata.str1.1
                0x00000000        0x8 C:/Program Files/TeliumSDK/SDK 9.8.0/SDK/lib_gnu_434/eft30.lib(param.o)
 .rodata        0x0003452e        0x6 C:/Program Files/TeliumSDK/SDK 9.8.0/SDK/lib_gnu_434/eft30.lib(param.o)
 .rodata.str1.1
                0x00000000        0x8 C:/Program Files/TeliumSDK/SDK 9.8.0/SDK/lib_gnu_434/eft30.lib(saisie.o)
 .rodata        0x00034534        0x7 C:/Program Files/TeliumSDK/SDK 9.8.0/SDK/lib_gnu_434/eft30.lib(saisie.o)
 .rodata.str1.1
                0x00000000        0x8 C:/Program Files/TeliumSDK/SDK 9.8.0/SDK/lib_gnu_434/eft30.lib(sv.o)
 .rodata        0x0003453b        0x3 C:/Program Files/TeliumSDK/SDK 9.8.0/SDK/lib_gnu_434/eft30.lib(sv.o)
 .rodata.str1.1
                0x00000000        0x8 C:/Program Files/TeliumSDK/SDK 9.8.0/SDK/lib_gnu_434/eft30.lib(libgr.o)
 .rodata        0x0003453e        0x6 C:/Program Files/TeliumSDK/SDK 9.8.0/SDK/lib_gnu_434/eft30.lib(libgr.o)
 .rodata.str1.1
                0x00000000        0x8 C:/Program Files/TeliumSDK/SDK 9.8.0/SDK/lib_gnu_434/eft30.lib(Tools.o)
 .rodata        0x00034544        0x8 C:/Program Files/TeliumSDK/SDK 9.8.0/SDK/lib_gnu_434/eft30.lib(Tools.o)
 .rodata.str1.1
                0x00000000        0x8 C:/Program Files/TeliumSDK/SDK 9.8.0/SDK/lib_gnu_434/eft30.lib(gprs.o)
 .rodata        0x0003454c        0x5 C:/Program Files/TeliumSDK/SDK 9.8.0/SDK/lib_gnu_434/eft30.lib(gprs.o)
 .rodata.str1.1
                0x00000000        0x8 C:/Program Files/TeliumSDK/SDK 9.8.0/SDK/lib_gnu_434/eft30.lib(hwcnf.o)
 .rodata        0x00034551        0x6 C:/Program Files/TeliumSDK/SDK 9.8.0/SDK/lib_gnu_434/eft30.lib(hwcnf.o)
 .rodata.str1.1
                0x00034557       0xbf C:/Program Files/TeliumSDK/SDK 9.8.0/SDK/lib_gnu_434/LinkLayerExeInterface.lib(LinkLayerServices.o)
                                 0xc0 (size before relaxing)
 .rodata.str1.1
                0x00034616        0xa C:/Program Files/TeliumSDK/SDK 9.8.0/SDK/lib_gnu_434/FTP_.lib(FTP.o)
 .rodata.str1.1
                0x00034620      0x203 C:/Program Files/TeliumSDK/SDK 9.8.0/SDK/lib_gnu_434/FTP_.lib(FTPC.o)
                                0x216 (size before relaxing)
 .rodata.str1.1
                0x00034823        0xc C:/Program Files/TeliumSDK/SDK 9.8.0/SDK/lib_gnu_434/IP_.lib(IP.o)
 .rodata.str1.1
                0x0003482f      0x3fc C:/Program Files/TeliumSDK/SDK 9.8.0/SDK/lib_gnu_434/IP_.lib(EthernetConfig.o)
                                0x426 (size before relaxing)
 .rodata.str1.1
                0x00034c2b       0x10 C:/Program Files/TeliumSDK/SDK 9.8.0/SDK/lib_gnu_434/eft30.lib(extens280.o)
 .rodata.str1.1
                0x00034c3b       0x96 C:/Program Files/TeliumSDK/SDK 9.8.0/SDK/lib_gnu_434/AVL.lib(Serializer_Xml.o)
                                 0xa7 (size before relaxing)
 .rodata.str1.1
                0x00034cd1       0x1e C:/Program Files/TeliumSDK/SDK 9.8.0/SDK/lib_gnu_434/AVL.lib(XMLs_ProcessData.o)
 *fill*         0x00034cef        0x1 00
 .rodata        0x00034cf0       0x28 C:/Program Files/TeliumSDK/SDK 9.8.0/SDK/lib_gnu_434/AVL.lib(XMLs_ProcessData.o)
 .rodata.str1.1
                0x00034d18      0x266 C:/Program Files/TeliumSDK/SDK 9.8.0/SDK/lib_gnu_434/dll_wifi.lib(wifi.o)
                                0x26e (size before relaxing)
 .rodata.str1.1
                0x00034f7e       0x4c C:/Program Files/Ingenico/IngeDev_7/plugins/com.ingenico.ingedev.telium.bin.win32.gnuarm.v434_7.16.0.6/os/win32/GNUARM/4.3.4/arm-elf/lib/thumb/soft/interwork/libc.a(lib_a-svfprintf.o)
                                 0x4e (size before relaxing)
 *fill*         0x00034fca        0x2 00
 .rodata        0x00034fcc      0x184 C:/Program Files/Ingenico/IngeDev_7/plugins/com.ingenico.ingedev.telium.bin.win32.gnuarm.v434_7.16.0.6/os/win32/GNUARM/4.3.4/arm-elf/lib/thumb/soft/interwork/libc.a(lib_a-svfprintf.o)
 .rodata        0x00035150      0x101 C:/Program Files/Ingenico/IngeDev_7/plugins/com.ingenico.ingedev.telium.bin.win32.gnuarm.v434_7.16.0.6/os/win32/GNUARM/4.3.4/arm-elf/lib/thumb/soft/interwork/libc.a(lib_a-ctype_.o)
                0x00035150                _ctype_
 .rodata.str1.1
                0x00035251        0xd C:/Program Files/Ingenico/IngeDev_7/plugins/com.ingenico.ingedev.telium.bin.win32.gnuarm.v434_7.16.0.6/os/win32/GNUARM/4.3.4/arm-elf/lib/thumb/soft/interwork/libc.a(lib_a-dtoa.o)
                                  0xf (size before relaxing)
 *fill*         0x0003525e        0x2 00
 .rodata        0x00035260       0x18 C:/Program Files/Ingenico/IngeDev_7/plugins/com.ingenico.ingedev.telium.bin.win32.gnuarm.v434_7.16.0.6/os/win32/GNUARM/4.3.4/arm-elf/lib/thumb/soft/interwork/libc.a(lib_a-dtoa.o)
 .rodata        0x00035278        0x4 C:/Program Files/Ingenico/IngeDev_7/plugins/com.ingenico.ingedev.telium.bin.win32.gnuarm.v434_7.16.0.6/os/win32/GNUARM/4.3.4/arm-elf/lib/thumb/soft/interwork/libc.a(lib_a-impure.o)
                0x00035278                _global_impure_ptr
 .rodata.str1.1
                0x00000000        0xd C:/Program Files/Ingenico/IngeDev_7/plugins/com.ingenico.ingedev.telium.bin.win32.gnuarm.v434_7.16.0.6/os/win32/GNUARM/4.3.4/arm-elf/lib/thumb/soft/interwork/libc.a(lib_a-impure.o)
                                  0x2 (size before relaxing)
 .rodata.str1.1
                0x0003527c        0x6 C:/Program Files/Ingenico/IngeDev_7/plugins/com.ingenico.ingedev.telium.bin.win32.gnuarm.v434_7.16.0.6/os/win32/GNUARM/4.3.4/arm-elf/lib/thumb/soft/interwork/libc.a(lib_a-locale.o)
                                  0xb (size before relaxing)
 *fill*         0x00035282        0x2 00
 .rodata        0x00035284       0x38 C:/Program Files/Ingenico/IngeDev_7/plugins/com.ingenico.ingedev.telium.bin.win32.gnuarm.v434_7.16.0.6/os/win32/GNUARM/4.3.4/arm-elf/lib/thumb/soft/interwork/libc.a(lib_a-locale.o)
 .rodata        0x000352bc      0x124 C:/Program Files/Ingenico/IngeDev_7/plugins/com.ingenico.ingedev.telium.bin.win32.gnuarm.v434_7.16.0.6/os/win32/GNUARM/4.3.4/arm-elf/lib/thumb/soft/interwork/libc.a(lib_a-mprec.o)
                0x000352bc                __mprec_tens
                0x00035384                __mprec_bigtens
                0x000353ac                __mprec_tinytens
 .rodata.str1.1
                0x00000000       0x3c C:/Program Files/Ingenico/IngeDev_7/plugins/com.ingenico.ingedev.telium.bin.win32.gnuarm.v434_7.16.0.6/os/win32/GNUARM/4.3.4/arm-elf/lib/thumb/soft/interwork/libc.a(lib_a-svfiprintf.o)
 .rodata        0x000353e0       0x20 C:/Program Files/Ingenico/IngeDev_7/plugins/com.ingenico.ingedev.telium.bin.win32.gnuarm.v434_7.16.0.6/os/win32/GNUARM/4.3.4/arm-elf/lib/thumb/soft/interwork/libc.a(lib_a-svfiprintf.o)
 *(.gnu.linkonce.r.*)
                0x00035400                __text_end = .
                0x00200000                . = 0x200000

.data           0x00200000      0x75c load address 0x00035400
                0x00200000                __data_start = .
 *(.data .data.*)
 .data          0x00200000        0x0 Obj/GNU_ARM_DEBUG/Backlight.o
 .data          0x00200000      0x116 Obj/GNU_ARM_DEBUG/Boleto.o
                0x00200000                f_virgula
                0x0020004a                f_barra
                0x0020009c                f_perc
 .data          0x00200116        0x0 Obj/GNU_ARM_DEBUG/Conn.o
 .data          0x00200116        0x0 Obj/GNU_ARM_DEBUG/Dialogs.o
 *fill*         0x00200116        0x2 00
 .data          0x00200118      0x10c Obj/GNU_ARM_DEBUG/Entry.o
                0x00200118                idleMsgAtual
 .data          0x00200224        0x0 Obj/GNU_ARM_DEBUG/File.o
 .data          0x00200224        0x0 Obj/GNU_ARM_DEBUG/FTP.o
 .data          0x00200224        0x0 Obj/GNU_ARM_DEBUG/GPRS.o
 .data          0x00200224        0x0 Obj/GNU_ARM_DEBUG/HTTP.o
 .data          0x00200224        0x0 Obj/GNU_ARM_DEBUG/Inicio.o
 .data          0x00200224        0x0 Obj/GNU_ARM_DEBUG/Main.o
 .data          0x00200224       0xb4 Obj/GNU_ARM_DEBUG/Menus.o
                0x00200224                MenuPrincipal
                0x00200238                MenuAdm
                0x00200254                MenuSistema
                0x00200274                MenuConfig
                0x00200280                MenuServidor
                0x00200294                MenuApn
                0x002002b0                MenuCobranca
                0x002002c0                MenuRelatorios
                0x002002d0                MenuReimpressaoVendas
 .data          0x002002d8        0x0 Obj/GNU_ARM_DEBUG/NTP.o
 .data          0x002002d8        0x0 Obj/GNU_ARM_DEBUG/Sistema.o
 .data          0x002002d8        0x0 Obj/GNU_ARM_DEBUG/Recarga.o
 .data          0x002002d8        0x0 Obj/GNU_ARM_DEBUG/cstartup.o
 .data          0x002002d8        0x4 Obj/GNU_ARM_DEBUG/__ing_cguard.o
                0x002002d8                __stack_chk_guard
 .data          0x002002dc        0x0 Obj/GNU_ARM_DEBUG/__ing_getRand_dateXORSerial.o
 .data          0x002002dc        0x0 C:/Program Files/TeliumSDK/SDK 9.8.0/SDK/lib_gnu_434/eft30.lib(atoi.o)
 .data          0x002002dc        0x0 C:/Program Files/TeliumSDK/SDK 9.8.0/SDK/lib_gnu_434/eft30.lib(extens119.o)
 .data          0x002002dc        0x0 C:/Program Files/TeliumSDK/SDK 9.8.0/SDK/lib_gnu_434/eft30.lib(extens134.o)
 .data          0x002002dc        0x0 C:/Program Files/TeliumSDK/SDK 9.8.0/SDK/lib_gnu_434/eft30.lib(extens201.o)
 .data          0x002002dc        0x0 C:/Program Files/TeliumSDK/SDK 9.8.0/SDK/lib_gnu_434/eft30.lib(extens232.o)
 .data          0x002002dc        0x0 C:/Program Files/TeliumSDK/SDK 9.8.0/SDK/lib_gnu_434/eft30.lib(extens54.o)
 .data          0x002002dc        0x0 C:/Program Files/TeliumSDK/SDK 9.8.0/SDK/lib_gnu_434/eft30.lib(param156.o)
 .data          0x002002dc        0x0 C:/Program Files/TeliumSDK/SDK 9.8.0/SDK/lib_gnu_434/eft30.lib(param17.o)
 .data          0x002002dc        0x0 C:/Program Files/TeliumSDK/SDK 9.8.0/SDK/lib_gnu_434/eft30.lib(param47.o)
 .data          0x002002dc        0x0 C:/Program Files/TeliumSDK/SDK 9.8.0/SDK/lib_gnu_434/eft30.lib(param81.o)
 .data          0x002002dc        0x0 C:/Program Files/TeliumSDK/SDK 9.8.0/SDK/lib_gnu_434/eft30.lib(saisie18.o)
 .data          0x002002dc        0x0 C:/Program Files/TeliumSDK/SDK 9.8.0/SDK/lib_gnu_434/eft30.lib(saisie6.o)
 .data          0x002002dc        0x0 C:/Program Files/TeliumSDK/SDK 9.8.0/SDK/lib_gnu_434/eft30.lib(saisie7.o)
 .data          0x002002dc        0x0 C:/Program Files/TeliumSDK/SDK 9.8.0/SDK/lib_gnu_434/eft30.lib(saisie8.o)
 .data          0x002002dc        0x0 C:/Program Files/TeliumSDK/SDK 9.8.0/SDK/lib_gnu_434/eft30.lib(saisie9.o)
 .data          0x002002dc        0x0 C:/Program Files/TeliumSDK/SDK 9.8.0/SDK/lib_gnu_434/eft30.lib(sv24.o)
 .data          0x002002dc        0x0 C:/Program Files/TeliumSDK/SDK 9.8.0/SDK/lib_gnu_434/eft30.lib(sv25.o)
 .data          0x002002dc        0x0 C:/Program Files/TeliumSDK/SDK 9.8.0/SDK/lib_gnu_434/eft30.lib(libgr110.o)
 .data          0x002002dc        0x0 C:/Program Files/TeliumSDK/SDK 9.8.0/SDK/lib_gnu_434/eft30.lib(libgr123.o)
 .data          0x002002dc        0x0 C:/Program Files/TeliumSDK/SDK 9.8.0/SDK/lib_gnu_434/eft30.lib(libgr137.o)
 .data          0x002002dc        0x0 C:/Program Files/TeliumSDK/SDK 9.8.0/SDK/lib_gnu_434/eft30.lib(libgr25.o)
 .data          0x002002dc        0x0 C:/Program Files/TeliumSDK/SDK 9.8.0/SDK/lib_gnu_434/eft30.lib(libgr3.o)
 .data          0x002002dc        0x0 C:/Program Files/TeliumSDK/SDK 9.8.0/SDK/lib_gnu_434/eft30.lib(libgr33.o)
 .data          0x002002dc        0x0 C:/Program Files/TeliumSDK/SDK 9.8.0/SDK/lib_gnu_434/eft30.lib(libgr35.o)
 .data          0x002002dc        0x0 C:/Program Files/TeliumSDK/SDK 9.8.0/SDK/lib_gnu_434/eft30.lib(libgr37.o)
 .data          0x002002dc        0x0 C:/Program Files/TeliumSDK/SDK 9.8.0/SDK/lib_gnu_434/eft30.lib(libgr41.o)
 .data          0x002002dc        0x0 C:/Program Files/TeliumSDK/SDK 9.8.0/SDK/lib_gnu_434/eft30.lib(libgr49.o)
 .data          0x002002dc        0x0 C:/Program Files/TeliumSDK/SDK 9.8.0/SDK/lib_gnu_434/eft30.lib(libgr50.o)
 .data          0x002002dc        0x0 C:/Program Files/TeliumSDK/SDK 9.8.0/SDK/lib_gnu_434/eft30.lib(libgr52.o)
 .data          0x002002dc        0x0 C:/Program Files/TeliumSDK/SDK 9.8.0/SDK/lib_gnu_434/eft30.lib(libgr7.o)
 .data          0x002002dc        0x0 C:/Program Files/TeliumSDK/SDK 9.8.0/SDK/lib_gnu_434/eft30.lib(libgr75.o)
 .data          0x002002dc        0x0 C:/Program Files/TeliumSDK/SDK 9.8.0/SDK/lib_gnu_434/eft30.lib(libgr81.o)
 .data          0x002002dc        0x0 C:/Program Files/TeliumSDK/SDK 9.8.0/SDK/lib_gnu_434/eft30.lib(libgr82.o)
 .data          0x002002dc        0x0 C:/Program Files/TeliumSDK/SDK 9.8.0/SDK/lib_gnu_434/eft30.lib(libgr83.o)
 .data          0x002002dc        0x0 C:/Program Files/TeliumSDK/SDK 9.8.0/SDK/lib_gnu_434/eft30.lib(Tools35.o)
 .data          0x002002dc        0x0 C:/Program Files/TeliumSDK/SDK 9.8.0/SDK/lib_gnu_434/eft30.lib(Tools36.o)
 .data          0x002002dc        0x0 C:/Program Files/TeliumSDK/SDK 9.8.0/SDK/lib_gnu_434/eft30.lib(gprs1.o)
 .data          0x002002dc        0x0 C:/Program Files/TeliumSDK/SDK 9.8.0/SDK/lib_gnu_434/eft30.lib(gprs11.o)
 .data          0x002002dc        0x0 C:/Program Files/TeliumSDK/SDK 9.8.0/SDK/lib_gnu_434/eft30.lib(gprs13.o)
 .data          0x002002dc        0x0 C:/Program Files/TeliumSDK/SDK 9.8.0/SDK/lib_gnu_434/eft30.lib(gprs15.o)
 .data          0x002002dc        0x0 C:/Program Files/TeliumSDK/SDK 9.8.0/SDK/lib_gnu_434/eft30.lib(gprs17.o)
 .data          0x002002dc        0x0 C:/Program Files/TeliumSDK/SDK 9.8.0/SDK/lib_gnu_434/eft30.lib(gprs19.o)
 .data          0x002002dc        0x0 C:/Program Files/TeliumSDK/SDK 9.8.0/SDK/lib_gnu_434/eft30.lib(gprs29.o)
 .data          0x002002dc        0x0 C:/Program Files/TeliumSDK/SDK 9.8.0/SDK/lib_gnu_434/eft30.lib(gprs32.o)
 .data          0x002002dc        0x0 C:/Program Files/TeliumSDK/SDK 9.8.0/SDK/lib_gnu_434/eft30.lib(hwcnf18.o)
 .data          0x002002dc        0x0 C:/Program Files/TeliumSDK/SDK 9.8.0/SDK/lib_gnu_434/eft30.lib(gprs_lib.o)
 .data          0x002002dc        0x0 C:/Program Files/TeliumSDK/SDK 9.8.0/SDK/lib_gnu_434/eft30.lib(LibAppli.o)
 .data          0x002002dc        0x0 C:/Program Files/TeliumSDK/SDK 9.8.0/SDK/lib_gnu_434/eft30.lib(ctype.o)
 .data          0x002002dc        0x0 C:/Program Files/TeliumSDK/SDK 9.8.0/SDK/lib_gnu_434/eft30.lib(extens.o)
 .data          0x002002dc        0x0 C:/Program Files/TeliumSDK/SDK 9.8.0/SDK/lib_gnu_434/eft30.lib(extens236.o)
 .data          0x002002dc        0x0 C:/Program Files/TeliumSDK/SDK 9.8.0/SDK/lib_gnu_434/eft30.lib(extens237.o)
 .data          0x002002dc        0x0 C:/Program Files/TeliumSDK/SDK 9.8.0/SDK/lib_gnu_434/eft30.lib(param.o)
 .data          0x002002dc        0x0 C:/Program Files/TeliumSDK/SDK 9.8.0/SDK/lib_gnu_434/eft30.lib(saisie.o)
 .data          0x002002dc        0x0 C:/Program Files/TeliumSDK/SDK 9.8.0/SDK/lib_gnu_434/eft30.lib(sv.o)
 .data          0x002002dc        0x0 C:/Program Files/TeliumSDK/SDK 9.8.0/SDK/lib_gnu_434/eft30.lib(libgr.o)
 .data          0x002002dc        0x0 C:/Program Files/TeliumSDK/SDK 9.8.0/SDK/lib_gnu_434/eft30.lib(Tools.o)
 .data          0x002002dc        0x0 C:/Program Files/TeliumSDK/SDK 9.8.0/SDK/lib_gnu_434/eft30.lib(gprs.o)
 .data          0x002002dc        0x0 C:/Program Files/TeliumSDK/SDK 9.8.0/SDK/lib_gnu_434/eft30.lib(hwcnf.o)
 .data          0x002002dc        0x0 C:/Program Files/TeliumSDK/SDK 9.8.0/SDK/lib_gnu_434/trap.lib(trap_1302___STDOUT.o)
 .data          0x002002dc        0x0 C:/Program Files/TeliumSDK/SDK 9.8.0/SDK/lib_gnu_434/trap.lib(trap_1313_fclose.o)
 .data          0x002002dc        0x0 C:/Program Files/TeliumSDK/SDK 9.8.0/SDK/lib_gnu_434/trap.lib(trap_1314_fopen.o)
 .data          0x002002dc        0x0 C:/Program Files/TeliumSDK/SDK 9.8.0/SDK/lib_gnu_434/trap.lib(trap_1319_getc.o)
 .data          0x002002dc        0x0 C:/Program Files/TeliumSDK/SDK 9.8.0/SDK/lib_gnu_434/trap.lib(trap_131B___STDIN.o)
 .data          0x002002dc        0x0 C:/Program Files/TeliumSDK/SDK 9.8.0/SDK/lib_gnu_434/trap.lib(trap_131E_status.o)
 .data          0x002002dc        0x0 C:/Program Files/TeliumSDK/SDK 9.8.0/SDK/lib_gnu_434/trap.lib(trap_1323__vfprintf.o)
 .data          0x002002dc        0x0 C:/Program Files/TeliumSDK/SDK 9.8.0/SDK/lib_gnu_434/trap.lib(trap_1324_vsprintf.o)
 .data          0x002002dc        0x0 C:/Program Files/TeliumSDK/SDK 9.8.0/SDK/lib_gnu_434/trap.lib(trap_1328_putc.o)
 .data          0x002002dc        0x0 C:/Program Files/TeliumSDK/SDK 9.8.0/SDK/lib_gnu_434/trap.lib(trap_1329_ttestall.o)
 .data          0x002002dc        0x0 C:/Program Files/TeliumSDK/SDK 9.8.0/SDK/lib_gnu_434/trap.lib(trap_132C_FormatOem.o)
 .data          0x002002dc        0x0 C:/Program Files/TeliumSDK/SDK 9.8.0/SDK/lib_gnu_434/trap.lib(trap_1348_ObjectGetInfo.o)
 .data          0x002002dc        0x0 C:/Program Files/TeliumSDK/SDK 9.8.0/SDK/lib_gnu_434/trap.lib(trap_1349_ObjectLoad.o)
 .data          0x002002dc        0x0 C:/Program Files/TeliumSDK/SDK 9.8.0/SDK/lib_gnu_434/trap.lib(trap_134B_FreeSpace.o)
 .data          0x002002dc        0x0 C:/Program Files/TeliumSDK/SDK 9.8.0/SDK/lib_gnu_434/trap.lib(trap_134D_ServiceRegister.o)
 .data          0x002002dc        0x0 C:/Program Files/TeliumSDK/SDK 9.8.0/SDK/lib_gnu_434/trap.lib(trap_1350_DllLink.o)
 .data          0x002002dc        0x0 C:/Program Files/TeliumSDK/SDK 9.8.0/SDK/lib_gnu_434/trap.lib(trap_1352_DllUnlink.o)
 .data          0x002002dc        0x0 C:/Program Files/TeliumSDK/SDK 9.8.0/SDK/lib_gnu_434/trap.lib(trap_1356_stdperif.o)
 .data          0x002002dc        0x0 C:/Program Files/TeliumSDK/SDK 9.8.0/SDK/lib_gnu_434/trap.lib(trap_1375_download.o)
 .data          0x002002dc        0x0 C:/Program Files/TeliumSDK/SDK 9.8.0/SDK/lib_gnu_434/trap.lib(trap_1378_OEM_exit.o)
 .data          0x002002dc        0x0 C:/Program Files/TeliumSDK/SDK 9.8.0/SDK/lib_gnu_434/trap.lib(trap_137B_is_iso2.o)
 .data          0x002002dc        0x0 C:/Program Files/TeliumSDK/SDK 9.8.0/SDK/lib_gnu_434/trap.lib(trap_1386_upload_diagnostic_txt.o)
 .data          0x002002dc        0x0 C:/Program Files/TeliumSDK/SDK 9.8.0/SDK/lib_gnu_434/trap.lib(trap_138B_FS_dskcreate.o)
 .data          0x002002dc        0x0 C:/Program Files/TeliumSDK/SDK 9.8.0/SDK/lib_gnu_434/trap.lib(trap_138C_FS_dskkill.o)
 .data          0x002002dc        0x0 C:/Program Files/TeliumSDK/SDK 9.8.0/SDK/lib_gnu_434/trap.lib(trap_138D_FS_mount.o)
 .data          0x002002dc        0x0 C:/Program Files/TeliumSDK/SDK 9.8.0/SDK/lib_gnu_434/trap.lib(trap_138E_FS_unmount.o)
 .data          0x002002dc        0x0 C:/Program Files/TeliumSDK/SDK 9.8.0/SDK/lib_gnu_434/trap.lib(trap_1399_FS_unlink.o)
 .data          0x002002dc        0x0 C:/Program Files/TeliumSDK/SDK 9.8.0/SDK/lib_gnu_434/trap.lib(trap_139B_FS_open.o)
 .data          0x002002dc        0x0 C:/Program Files/TeliumSDK/SDK 9.8.0/SDK/lib_gnu_434/trap.lib(trap_139C_FS_close.o)
 .data          0x002002dc        0x0 C:/Program Files/TeliumSDK/SDK 9.8.0/SDK/lib_gnu_434/trap.lib(trap_139D_FS_read.o)
 .data          0x002002dc        0x0 C:/Program Files/TeliumSDK/SDK 9.8.0/SDK/lib_gnu_434/trap.lib(trap_139E_FS_write.o)
 .data          0x002002dc        0x0 C:/Program Files/TeliumSDK/SDK 9.8.0/SDK/lib_gnu_434/trap.lib(trap_13A1_FS_length.o)
 .data          0x002002dc        0x0 C:/Program Files/TeliumSDK/SDK 9.8.0/SDK/lib_gnu_434/trap.lib(trap_13AB_first_init.o)
 .data          0x002002dc        0x0 C:/Program Files/TeliumSDK/SDK 9.8.0/SDK/lib_gnu_434/trap.lib(trap_13AD_raz_init.o)
 .data          0x002002dc        0x0 C:/Program Files/TeliumSDK/SDK 9.8.0/SDK/lib_gnu_434/trap.lib(trap_13B2_ApplicationGetCurrent.o)
 .data          0x002002dc        0x0 C:/Program Files/TeliumSDK/SDK 9.8.0/SDK/lib_gnu_434/trap.lib(trap_13C2_InitGkDrv.o)
 .data          0x002002dc        0x0 C:/Program Files/TeliumSDK/SDK 9.8.0/SDK/lib_gnu_434/trap.lib(trap_13C4_SoftwareActivate.o)
 .data          0x002002dc        0x0 C:/Program Files/TeliumSDK/SDK 9.8.0/SDK/lib_gnu_434/trap.lib(trap_13CE_closesocket.o)
 .data          0x002002dc        0x0 C:/Program Files/TeliumSDK/SDK 9.8.0/SDK/lib_gnu_434/trap.lib(trap_13CF_connect.o)
 .data          0x002002dc        0x0 C:/Program Files/TeliumSDK/SDK 9.8.0/SDK/lib_gnu_434/trap.lib(trap_13D7_socket.o)
 .data          0x002002dc        0x0 C:/Program Files/TeliumSDK/SDK 9.8.0/SDK/lib_gnu_434/trap.lib(trap_1406_umalloc.o)
 .data          0x002002dc        0x0 C:/Program Files/TeliumSDK/SDK 9.8.0/SDK/lib_gnu_434/trap.lib(trap_1407_ufree.o)
 .data          0x002002dc        0x0 C:/Program Files/TeliumSDK/SDK 9.8.0/SDK/lib_gnu_434/trap.lib(trap_1414_fioctl.o)
 .data          0x002002dc        0x0 C:/Program Files/TeliumSDK/SDK 9.8.0/SDK/lib_gnu_434/trap.lib(trap_142A_urealloc.o)
 .data          0x002002dc        0x0 C:/Program Files/TeliumSDK/SDK 9.8.0/SDK/lib_gnu_434/trap.lib(trap_1432_SystemFioctl.o)
 .data          0x002002dc        0x0 C:/Program Files/TeliumSDK/SDK 9.8.0/SDK/lib_gnu_434/LinkLayerExeInterface.lib(LinkLayerServices.o)
 .data          0x002002dc        0xc C:/Program Files/TeliumSDK/SDK 9.8.0/SDK/lib_gnu_434/FTP_.lib(FTP.o)
                0x002002dc                g_nFtpLibLoaded
                0x002002e0                g_nSslLibLoaded
                0x002002e4                g_nConnectTimeOut
 .data          0x002002e8        0x0 C:/Program Files/TeliumSDK/SDK 9.8.0/SDK/lib_gnu_434/FTP_.lib(FTPC.o)
 .data          0x002002e8        0x0 C:/Program Files/TeliumSDK/SDK 9.8.0/SDK/lib_gnu_434/IP_.lib(IP.o)
 .data          0x002002e8        0x0 C:/Program Files/TeliumSDK/SDK 9.8.0/SDK/lib_gnu_434/IP_.lib(DNS.o)
 .data          0x002002e8        0x4 C:/Program Files/TeliumSDK/SDK 9.8.0/SDK/lib_gnu_434/IP_.lib(DefaultOptions.o)
 .data          0x002002ec        0x0 C:/Program Files/TeliumSDK/SDK 9.8.0/SDK/lib_gnu_434/IP_.lib(EthernetConfig.o)
 .data          0x002002ec        0x0 C:/Program Files/TeliumSDK/SDK 9.8.0/SDK/lib_gnu_434/IP_.lib(WifiConfig.o)
 .data          0x002002ec        0x0 C:/Program Files/TeliumSDK/SDK 9.8.0/SDK/lib_gnu_434/libcpatch.o
 .data          0x002002ec        0x0 C:/Program Files/TeliumSDK/SDK 9.8.0/SDK/lib_gnu_434/eft30.lib(extens280.o)
 .data          0x002002ec        0x0 C:/Program Files/TeliumSDK/SDK 9.8.0/SDK/lib_gnu_434/trap.lib(trap_13D8_inet_addr.o)
 .data          0x002002ec        0x0 C:/Program Files/TeliumSDK/SDK 9.8.0/SDK/lib_gnu_434/trap.lib(trap_13DC_PppSetOption.o)
 .data          0x002002ec        0x0 C:/Program Files/TeliumSDK/SDK 9.8.0/SDK/lib_gnu_434/trap.lib(trap_13E1_fcntlsocketSWI.o)
 .data          0x002002ec        0x0 C:/Program Files/TeliumSDK/SDK 9.8.0/SDK/lib_gnu_434/trap.lib(trap_13E2_getsockoptSWI.o)
 .data          0x002002ec        0x0 C:/Program Files/TeliumSDK/SDK 9.8.0/SDK/lib_gnu_434/trap.lib(trap_13E3_recvfromSWI.o)
 .data          0x002002ec        0x0 C:/Program Files/TeliumSDK/SDK 9.8.0/SDK/lib_gnu_434/trap.lib(trap_13E4_selectsocketSWI.o)
 .data          0x002002ec        0x0 C:/Program Files/TeliumSDK/SDK 9.8.0/SDK/lib_gnu_434/trap.lib(trap_13E5_sendtoSWI.o)
 .data          0x002002ec        0x0 C:/Program Files/TeliumSDK/SDK 9.8.0/SDK/lib_gnu_434/trap.lib(trap_13E6_setsockoptSWI.o)
 .data          0x002002ec        0x0 C:/Program Files/TeliumSDK/SDK 9.8.0/SDK/lib_gnu_434/trap.lib(trap_13E7_ngOSGetErrno.o)
 .data          0x002002ec        0x0 C:/Program Files/TeliumSDK/SDK 9.8.0/SDK/lib_gnu_434/trap.lib(trap_13E8_ngOSSetErrno.o)
 .data          0x002002ec        0x0 C:/Program Files/TeliumSDK/SDK 9.8.0/SDK/lib_gnu_434/trap.lib(trap_13E9_ngResolvSetOption.o)
 .data          0x002002ec        0x0 C:/Program Files/TeliumSDK/SDK 9.8.0/SDK/lib_gnu_434/trap.lib(trap_13EA_ngResolvGetOption.o)
 .data          0x002002ec        0x0 C:/Program Files/TeliumSDK/SDK 9.8.0/SDK/lib_gnu_434/trap.lib(trap_13ED_gethostbyaddr_rSWI.o)
 .data          0x002002ec        0x0 C:/Program Files/TeliumSDK/SDK 9.8.0/SDK/lib_gnu_434/trap.lib(trap_13EE_gethostbyname_rSWI.o)
 .data          0x002002ec        0x0 C:/Program Files/TeliumSDK/SDK 9.8.0/SDK/lib_gnu_434/trap.lib(trap_141D_ngRouteAdd.o)
 .data          0x002002ec        0x0 C:/Program Files/TeliumSDK/SDK 9.8.0/SDK/lib_gnu_434/trap.lib(trap_141E_ngRouteDelete.o)
 .data          0x002002ec        0x0 C:/Program Files/TeliumSDK/SDK 9.8.0/SDK/lib_gnu_434/trap.lib(trap_141F_ngRouteDefault.o)
 .data          0x002002ec        0x0 C:/Program Files/TeliumSDK/SDK 9.8.0/SDK/lib_gnu_434/trap.lib(trap_1426_get_tick_counter.o)
 .data          0x002002ec        0x0 C:/Program Files/TeliumSDK/SDK 9.8.0/SDK/lib_gnu_434/trap.lib(trap_142B_EthIfControl.o)
 .data          0x002002ec        0x0 C:/Program Files/TeliumSDK/SDK 9.8.0/SDK/lib_gnu_434/AVL.lib(Proxy.o)
 .data          0x002002ec        0x0 C:/Program Files/TeliumSDK/SDK 9.8.0/SDK/lib_gnu_434/AVL.lib(Serializer.o)
 .data          0x002002ec        0x0 C:/Program Files/TeliumSDK/SDK 9.8.0/SDK/lib_gnu_434/AVL.lib(Serializer_Default.o)
 .data          0x002002ec        0x0 C:/Program Files/TeliumSDK/SDK 9.8.0/SDK/lib_gnu_434/AVL.lib(Serializer_Xml.o)
 .data          0x002002ec        0x0 C:/Program Files/TeliumSDK/SDK 9.8.0/SDK/lib_gnu_434/AVL.lib(XMLs_ProcessData.o)
 .data          0x002002ec        0x0 C:/Program Files/TeliumSDK/SDK 9.8.0/SDK/lib_gnu_434/AVL.lib(XMLs_Common.o)
 .data          0x002002ec        0x0 C:/Program Files/TeliumSDK/SDK 9.8.0/SDK/lib_gnu_434/AVL.lib(XMLs_Deprecated.o)
 .data          0x002002ec        0x0 C:/Program Files/TeliumSDK/SDK 9.8.0/SDK/lib_gnu_434/AVL.lib(XMLs_Parser_Deprecated.o)
 .data          0x002002ec        0x0 C:/Program Files/TeliumSDK/SDK 9.8.0/SDK/lib_gnu_434/AVL.lib(Internal.o)
 .data          0x002002ec        0x0 C:/Program Files/TeliumSDK/SDK 9.8.0/SDK/lib_gnu_434/dll_wifi.lib(wifi.o)
 .data          0x002002ec        0x0 C:/Program Files/TeliumSDK/SDK 9.8.0/SDK/lib_gnu_434/dll_wifi.lib(wifi1.o)
 .data          0x002002ec        0x0 C:/Program Files/TeliumSDK/SDK 9.8.0/SDK/lib_gnu_434/dll_wifi.lib(wifi2.o)
 .data          0x002002ec        0x0 C:/Program Files/TeliumSDK/SDK 9.8.0/SDK/lib_gnu_434/dll_wifi.lib(wifi3.o)
 .data          0x002002ec        0x0 C:/Program Files/TeliumSDK/SDK 9.8.0/SDK/lib_gnu_434/dll_wifi.lib(wifi4.o)
 .data          0x002002ec        0x0 C:/Program Files/TeliumSDK/SDK 9.8.0/SDK/lib_gnu_434/dll_wifi.lib(wifi5.o)
 .data          0x002002ec        0x0 C:/Program Files/TeliumSDK/SDK 9.8.0/SDK/lib_gnu_434/dll_wifi.lib(wifi6.o)
 .data          0x002002ec        0x0 C:/Program Files/TeliumSDK/SDK 9.8.0/SDK/lib_gnu_434/dll_wifi.lib(wifi7.o)
 .data          0x002002ec        0x0 C:/Program Files/TeliumSDK/SDK 9.8.0/SDK/lib_gnu_434/dll_wifi.lib(wifi8.o)
 .data          0x002002ec        0x0 C:/Program Files/TeliumSDK/SDK 9.8.0/SDK/lib_gnu_434/dll_wifi.lib(wifi9.o)
 .data          0x002002ec        0x0 C:/Program Files/TeliumSDK/SDK 9.8.0/SDK/lib_gnu_434/dll_wifi.lib(wifi10.o)
 .data          0x002002ec        0x0 C:/Program Files/TeliumSDK/SDK 9.8.0/SDK/lib_gnu_434/dll_wifi.lib(wifi11.o)
 .data          0x002002ec        0x0 C:/Program Files/TeliumSDK/SDK 9.8.0/SDK/lib_gnu_434/dll_wifi.lib(wifi12.o)
 .data          0x002002ec        0x0 C:/Program Files/TeliumSDK/SDK 9.8.0/SDK/lib_gnu_434/dll_wifi.lib(wifi13.o)
 .data          0x002002ec        0x0 C:/Program Files/TeliumSDK/SDK 9.8.0/SDK/lib_gnu_434/dll_wifi.lib(wifi14.o)
 .data          0x002002ec        0x0 C:/Program Files/TeliumSDK/SDK 9.8.0/SDK/lib_gnu_434/dll_wifi.lib(wifi15.o)
 .data          0x002002ec        0x0 C:/Program Files/TeliumSDK/SDK 9.8.0/SDK/lib_gnu_434/dll_wifi.lib(wifi16.o)
 .data          0x002002ec        0x0 C:/Program Files/TeliumSDK/SDK 9.8.0/SDK/lib_gnu_434/dll_wifi.lib(wifi17.o)
 .data          0x002002ec        0x0 C:/Program Files/TeliumSDK/SDK 9.8.0/SDK/lib_gnu_434/dll_wifi.lib(wifi18.o)
 .data          0x002002ec        0x0 C:/Program Files/TeliumSDK/SDK 9.8.0/SDK/lib_gnu_434/dll_wifi.lib(wifi19.o)
 .data          0x002002ec        0x0 C:/Program Files/TeliumSDK/SDK 9.8.0/SDK/lib_gnu_434/dll_wifi.lib(wifi20.o)
 .data          0x002002ec        0x0 C:/Program Files/TeliumSDK/SDK 9.8.0/SDK/lib_gnu_434/dll_wifi.lib(wifi21.o)
 .data          0x002002ec        0x0 C:/Program Files/TeliumSDK/SDK 9.8.0/SDK/lib_gnu_434/dll_wifi.lib(wifi22.o)
 .data          0x002002ec        0x0 C:/Program Files/TeliumSDK/SDK 9.8.0/SDK/lib_gnu_434/dll_wifi.lib(wifi23.o)
 .data          0x002002ec        0x0 C:/Program Files/TeliumSDK/SDK 9.8.0/SDK/lib_gnu_434/dll_wifi.lib(wifi24.o)
 .data          0x002002ec        0x0 C:/Program Files/TeliumSDK/SDK 9.8.0/SDK/lib_gnu_434/dll_wifi.lib(wifi25.o)
 .data          0x002002ec        0x0 C:/Program Files/TeliumSDK/SDK 9.8.0/SDK/lib_gnu_434/dll_wifi.lib(wifi26.o)
 .data          0x002002ec        0x0 C:/Program Files/TeliumSDK/SDK 9.8.0/SDK/lib_gnu_434/dll_wifi.lib(wifi27.o)
 .data          0x002002ec        0x0 C:/Program Files/TeliumSDK/SDK 9.8.0/SDK/lib_gnu_434/dll_wifi.lib(wifi28.o)
 .data          0x002002ec        0x0 C:/Program Files/TeliumSDK/SDK 9.8.0/SDK/lib_gnu_434/dll_wifi.lib(wifi29.o)
 .data          0x002002ec        0x0 C:/Program Files/TeliumSDK/SDK 9.8.0/SDK/lib_gnu_434/dll_wifi.lib(wifi30.o)
 .data          0x002002ec        0x0 C:/Program Files/TeliumSDK/SDK 9.8.0/SDK/lib_gnu_434/dll_wifi.lib(wifi31.o)
 .data          0x002002ec        0x0 C:/Program Files/TeliumSDK/SDK 9.8.0/SDK/lib_gnu_434/dll_wifi.lib(wifi32.o)
 .data          0x002002ec        0x0 C:/Program Files/TeliumSDK/SDK 9.8.0/SDK/lib_gnu_434/dll_wifi.lib(wifi33.o)
 .data          0x002002ec        0x0 C:/Program Files/TeliumSDK/SDK 9.8.0/SDK/lib_gnu_434/dll_wifi.lib(wifi34.o)
 .data          0x002002ec        0x0 C:/Program Files/TeliumSDK/SDK 9.8.0/SDK/lib_gnu_434/dll_wifi.lib(wifi35.o)
 .data          0x002002ec        0x0 C:/Program Files/TeliumSDK/SDK 9.8.0/SDK/lib_gnu_434/trap.lib(trap_13C1_trace.o)
 .data          0x002002ec        0x0 C:/Program Files/Ingenico/IngeDev_7/plugins/com.ingenico.ingedev.telium.bin.win32.gnuarm.v434_7.16.0.6/os/win32/GNUARM/4.3.4/arm-elf/lib/thumb/soft/interwork/libc.a(lib_a-memcmp.o)
 .data          0x002002ec        0x0 C:/Program Files/Ingenico/IngeDev_7/plugins/com.ingenico.ingedev.telium.bin.win32.gnuarm.v434_7.16.0.6/os/win32/GNUARM/4.3.4/arm-elf/lib/thumb/soft/interwork/libc.a(lib_a-memcpy.o)
 .data          0x002002ec        0x0 C:/Program Files/Ingenico/IngeDev_7/plugins/com.ingenico.ingedev.telium.bin.win32.gnuarm.v434_7.16.0.6/os/win32/GNUARM/4.3.4/arm-elf/lib/thumb/soft/interwork/libc.a(lib_a-memmove.o)
 .data          0x002002ec        0x0 C:/Program Files/Ingenico/IngeDev_7/plugins/com.ingenico.ingedev.telium.bin.win32.gnuarm.v434_7.16.0.6/os/win32/GNUARM/4.3.4/arm-elf/lib/thumb/soft/interwork/libc.a(lib_a-memset.o)
 .data          0x002002ec        0x0 C:/Program Files/Ingenico/IngeDev_7/plugins/com.ingenico.ingedev.telium.bin.win32.gnuarm.v434_7.16.0.6/os/win32/GNUARM/4.3.4/arm-elf/lib/thumb/soft/interwork/libc.a(lib_a-snprintf.o)
 .data          0x002002ec        0x0 C:/Program Files/Ingenico/IngeDev_7/plugins/com.ingenico.ingedev.telium.bin.win32.gnuarm.v434_7.16.0.6/os/win32/GNUARM/4.3.4/arm-elf/lib/thumb/soft/interwork/libc.a(lib_a-strcat.o)
 .data          0x002002ec        0x0 C:/Program Files/Ingenico/IngeDev_7/plugins/com.ingenico.ingedev.telium.bin.win32.gnuarm.v434_7.16.0.6/os/win32/GNUARM/4.3.4/arm-elf/lib/thumb/soft/interwork/libc.a(lib_a-strchr.o)
 .data          0x002002ec        0x0 C:/Program Files/Ingenico/IngeDev_7/plugins/com.ingenico.ingedev.telium.bin.win32.gnuarm.v434_7.16.0.6/os/win32/GNUARM/4.3.4/arm-elf/lib/thumb/soft/interwork/libc.a(lib_a-strcmp.o)
 .data          0x002002ec        0x0 C:/Program Files/Ingenico/IngeDev_7/plugins/com.ingenico.ingedev.telium.bin.win32.gnuarm.v434_7.16.0.6/os/win32/GNUARM/4.3.4/arm-elf/lib/thumb/soft/interwork/libc.a(lib_a-strcpy.o)
 .data          0x002002ec        0x0 C:/Program Files/Ingenico/IngeDev_7/plugins/com.ingenico.ingedev.telium.bin.win32.gnuarm.v434_7.16.0.6/os/win32/GNUARM/4.3.4/arm-elf/lib/thumb/soft/interwork/libc.a(lib_a-strlen.o)
 .data          0x002002ec        0x0 C:/Program Files/Ingenico/IngeDev_7/plugins/com.ingenico.ingedev.telium.bin.win32.gnuarm.v434_7.16.0.6/os/win32/GNUARM/4.3.4/arm-elf/lib/thumb/soft/interwork/libc.a(lib_a-strncat.o)
 .data          0x002002ec        0x0 C:/Program Files/Ingenico/IngeDev_7/plugins/com.ingenico.ingedev.telium.bin.win32.gnuarm.v434_7.16.0.6/os/win32/GNUARM/4.3.4/arm-elf/lib/thumb/soft/interwork/libc.a(lib_a-strncpy.o)
 .data          0x002002ec        0x0 C:/Program Files/Ingenico/IngeDev_7/plugins/com.ingenico.ingedev.telium.bin.win32.gnuarm.v434_7.16.0.6/os/win32/GNUARM/4.3.4/arm-elf/lib/thumb/soft/interwork/libc.a(lib_a-strstr.o)
 .data          0x002002ec        0x0 C:/Program Files/Ingenico/IngeDev_7/plugins/com.ingenico.ingedev.telium.bin.win32.gnuarm.v434_7.16.0.6/os/win32/GNUARM/4.3.4/arm-elf/lib/thumb/soft/interwork/libc.a(lib_a-strtok.o)
 .data          0x002002ec        0x0 C:/Program Files/Ingenico/IngeDev_7/plugins/com.ingenico.ingedev.telium.bin.win32.gnuarm.v434_7.16.0.6/os/win32/GNUARM/4.3.4/arm-elf/lib/thumb/soft/interwork/libc.a(lib_a-strtok_r.o)
 .data          0x002002ec        0x0 C:/Program Files/Ingenico/IngeDev_7/plugins/com.ingenico.ingedev.telium.bin.win32.gnuarm.v434_7.16.0.6/os/win32/GNUARM/4.3.4/arm-elf/lib/thumb/soft/interwork/libc.a(lib_a-strtoul.o)
 .data          0x002002ec        0x0 C:/Program Files/Ingenico/IngeDev_7/plugins/com.ingenico.ingedev.telium.bin.win32.gnuarm.v434_7.16.0.6/os/win32/GNUARM/4.3.4/arm-elf/lib/thumb/soft/interwork/libc.a(lib_a-svfprintf.o)
 .data          0x002002ec        0x4 C:/Program Files/Ingenico/IngeDev_7/plugins/com.ingenico.ingedev.telium.bin.win32.gnuarm.v434_7.16.0.6/os/win32/GNUARM/4.3.4/arm-elf/lib/thumb/soft/interwork/libc.a(lib_a-ctype_.o)
                0x002002ec                __ctype_ptr__
 .data          0x002002f0        0x0 C:/Program Files/Ingenico/IngeDev_7/plugins/com.ingenico.ingedev.telium.bin.win32.gnuarm.v434_7.16.0.6/os/win32/GNUARM/4.3.4/arm-elf/lib/thumb/soft/interwork/libc.a(lib_a-dtoa.o)
 .data          0x002002f0      0x428 C:/Program Files/Ingenico/IngeDev_7/plugins/com.ingenico.ingedev.telium.bin.win32.gnuarm.v434_7.16.0.6/os/win32/GNUARM/4.3.4/arm-elf/lib/thumb/soft/interwork/libc.a(lib_a-impure.o)
                0x002002f0                _impure_ptr
 .data          0x00200718       0x44 C:/Program Files/Ingenico/IngeDev_7/plugins/com.ingenico.ingedev.telium.bin.win32.gnuarm.v434_7.16.0.6/os/win32/GNUARM/4.3.4/arm-elf/lib/thumb/soft/interwork/libc.a(lib_a-locale.o)
                0x00200718                __mb_cur_max
 .data          0x0020075c        0x0 C:/Program Files/Ingenico/IngeDev_7/plugins/com.ingenico.ingedev.telium.bin.win32.gnuarm.v434_7.16.0.6/os/win32/GNUARM/4.3.4/arm-elf/lib/thumb/soft/interwork/libc.a(lib_a-memchr.o)
 .data          0x0020075c        0x0 C:/Program Files/Ingenico/IngeDev_7/plugins/com.ingenico.ingedev.telium.bin.win32.gnuarm.v434_7.16.0.6/os/win32/GNUARM/4.3.4/arm-elf/lib/thumb/soft/interwork/libc.a(lib_a-mprec.o)
 .data          0x0020075c        0x0 C:/Program Files/Ingenico/IngeDev_7/plugins/com.ingenico.ingedev.telium.bin.win32.gnuarm.v434_7.16.0.6/os/win32/GNUARM/4.3.4/arm-elf/lib/thumb/soft/interwork/libc.a(lib_a-s_fpclassify.o)
 .data          0x0020075c        0x0 C:/Program Files/Ingenico/IngeDev_7/plugins/com.ingenico.ingedev.telium.bin.win32.gnuarm.v434_7.16.0.6/os/win32/GNUARM/4.3.4/arm-elf/lib/thumb/soft/interwork/libc.a(lib_a-svfiprintf.o)
 .data          0x0020075c        0x0 C:/Program Files/Ingenico/IngeDev_7/plugins/com.ingenico.ingedev.telium.bin.win32.gnuarm.v434_7.16.0.6/os/win32/GNUARM/4.3.4/lib/gcc/arm-elf/4.3.4/thumb/soft/interwork/libgcc.a(_udivsi3.o)
 .data          0x0020075c        0x0 C:/Program Files/Ingenico/IngeDev_7/plugins/com.ingenico.ingedev.telium.bin.win32.gnuarm.v434_7.16.0.6/os/win32/GNUARM/4.3.4/lib/gcc/arm-elf/4.3.4/thumb/soft/interwork/libgcc.a(_divsi3.o)
 .data          0x0020075c        0x0 C:/Program Files/Ingenico/IngeDev_7/plugins/com.ingenico.ingedev.telium.bin.win32.gnuarm.v434_7.16.0.6/os/win32/GNUARM/4.3.4/lib/gcc/arm-elf/4.3.4/thumb/soft/interwork/libgcc.a(_umodsi3.o)
 .data          0x0020075c        0x0 C:/Program Files/Ingenico/IngeDev_7/plugins/com.ingenico.ingedev.telium.bin.win32.gnuarm.v434_7.16.0.6/os/win32/GNUARM/4.3.4/lib/gcc/arm-elf/4.3.4/thumb/soft/interwork/libgcc.a(_modsi3.o)
 .data          0x0020075c        0x0 C:/Program Files/Ingenico/IngeDev_7/plugins/com.ingenico.ingedev.telium.bin.win32.gnuarm.v434_7.16.0.6/os/win32/GNUARM/4.3.4/lib/gcc/arm-elf/4.3.4/thumb/soft/interwork/libgcc.a(_dvmd_tls.o)
 .data          0x0020075c        0x0 C:/Program Files/Ingenico/IngeDev_7/plugins/com.ingenico.ingedev.telium.bin.win32.gnuarm.v434_7.16.0.6/os/win32/GNUARM/4.3.4/lib/gcc/arm-elf/4.3.4/thumb/soft/interwork/libgcc.a(_addsubdf3.o)
 .data          0x0020075c        0x0 C:/Program Files/Ingenico/IngeDev_7/plugins/com.ingenico.ingedev.telium.bin.win32.gnuarm.v434_7.16.0.6/os/win32/GNUARM/4.3.4/lib/gcc/arm-elf/4.3.4/thumb/soft/interwork/libgcc.a(_muldivdf3.o)
 .data          0x0020075c        0x0 C:/Program Files/Ingenico/IngeDev_7/plugins/com.ingenico.ingedev.telium.bin.win32.gnuarm.v434_7.16.0.6/os/win32/GNUARM/4.3.4/lib/gcc/arm-elf/4.3.4/thumb/soft/interwork/libgcc.a(_cmpdf2.o)
 .data          0x0020075c        0x0 C:/Program Files/Ingenico/IngeDev_7/plugins/com.ingenico.ingedev.telium.bin.win32.gnuarm.v434_7.16.0.6/os/win32/GNUARM/4.3.4/lib/gcc/arm-elf/4.3.4/thumb/soft/interwork/libgcc.a(_fixdfsi.o)
 *(.gnu.linkonce.d.*)
                0x0020075c                __data_end = .

.bss            0x0020075c     0x1d5c load address 0x00035b5c
                0x0020075c                __bss_start = .
 *(.bss .bss.*)
 .bss           0x0020075c        0x0 Obj/GNU_ARM_DEBUG/Backlight.o
 .bss           0x0020075c        0x0 Obj/GNU_ARM_DEBUG/Boleto.o
 .bss           0x0020075c        0x0 Obj/GNU_ARM_DEBUG/Conn.o
 .bss           0x0020075c        0x0 Obj/GNU_ARM_DEBUG/Dialogs.o
 .bss           0x0020075c       0x2a Obj/GNU_ARM_DEBUG/Entry.o
 .bss           0x00200786        0x0 Obj/GNU_ARM_DEBUG/File.o
 .bss           0x00200786        0x0 Obj/GNU_ARM_DEBUG/FTP.o
 .bss           0x00200786        0x0 Obj/GNU_ARM_DEBUG/GPRS.o
 .bss           0x00200786        0x0 Obj/GNU_ARM_DEBUG/HTTP.o
 .bss           0x00200786        0x0 Obj/GNU_ARM_DEBUG/Inicio.o
 .bss           0x00200786        0x0 Obj/GNU_ARM_DEBUG/Main.o
 .bss           0x00200786        0x0 Obj/GNU_ARM_DEBUG/Menus.o
 .bss           0x00200786        0x0 Obj/GNU_ARM_DEBUG/NTP.o
 .bss           0x00200786        0x0 Obj/GNU_ARM_DEBUG/Sistema.o
 .bss           0x00200786        0x0 Obj/GNU_ARM_DEBUG/Recarga.o
 .bss           0x00200786        0x0 Obj/GNU_ARM_DEBUG/cstartup.o
 .bss           0x00200786        0x0 Obj/GNU_ARM_DEBUG/__ing_cguard.o
 .bss           0x00200786        0x0 Obj/GNU_ARM_DEBUG/__ing_getRand_dateXORSerial.o
 .bss           0x00200786        0x0 C:/Program Files/TeliumSDK/SDK 9.8.0/SDK/lib_gnu_434/eft30.lib(atoi.o)
 .bss           0x00200786        0x0 C:/Program Files/TeliumSDK/SDK 9.8.0/SDK/lib_gnu_434/eft30.lib(extens119.o)
 .bss           0x00200786        0x0 C:/Program Files/TeliumSDK/SDK 9.8.0/SDK/lib_gnu_434/eft30.lib(extens134.o)
 .bss           0x00200786        0x0 C:/Program Files/TeliumSDK/SDK 9.8.0/SDK/lib_gnu_434/eft30.lib(extens201.o)
 .bss           0x00200786        0x0 C:/Program Files/TeliumSDK/SDK 9.8.0/SDK/lib_gnu_434/eft30.lib(extens232.o)
 .bss           0x00200786        0x0 C:/Program Files/TeliumSDK/SDK 9.8.0/SDK/lib_gnu_434/eft30.lib(extens54.o)
 *fill*         0x00200786        0x2 00
 .bss           0x00200788        0x4 C:/Program Files/TeliumSDK/SDK 9.8.0/SDK/lib_gnu_434/eft30.lib(param156.o)
 .bss           0x0020078c        0x4 C:/Program Files/TeliumSDK/SDK 9.8.0/SDK/lib_gnu_434/eft30.lib(param17.o)
 .bss           0x00200790        0x4 C:/Program Files/TeliumSDK/SDK 9.8.0/SDK/lib_gnu_434/eft30.lib(param47.o)
 .bss           0x00200794        0x4 C:/Program Files/TeliumSDK/SDK 9.8.0/SDK/lib_gnu_434/eft30.lib(param81.o)
 .bss           0x00200798        0x4 C:/Program Files/TeliumSDK/SDK 9.8.0/SDK/lib_gnu_434/eft30.lib(saisie18.o)
 .bss           0x0020079c        0x4 C:/Program Files/TeliumSDK/SDK 9.8.0/SDK/lib_gnu_434/eft30.lib(saisie6.o)
 .bss           0x002007a0        0x4 C:/Program Files/TeliumSDK/SDK 9.8.0/SDK/lib_gnu_434/eft30.lib(saisie7.o)
 .bss           0x002007a4        0x4 C:/Program Files/TeliumSDK/SDK 9.8.0/SDK/lib_gnu_434/eft30.lib(saisie8.o)
 .bss           0x002007a8        0x4 C:/Program Files/TeliumSDK/SDK 9.8.0/SDK/lib_gnu_434/eft30.lib(saisie9.o)
 .bss           0x002007ac        0x4 C:/Program Files/TeliumSDK/SDK 9.8.0/SDK/lib_gnu_434/eft30.lib(sv24.o)
 .bss           0x002007b0        0x4 C:/Program Files/TeliumSDK/SDK 9.8.0/SDK/lib_gnu_434/eft30.lib(sv25.o)
 .bss           0x002007b4        0x4 C:/Program Files/TeliumSDK/SDK 9.8.0/SDK/lib_gnu_434/eft30.lib(libgr110.o)
 .bss           0x002007b8        0x4 C:/Program Files/TeliumSDK/SDK 9.8.0/SDK/lib_gnu_434/eft30.lib(libgr123.o)
 .bss           0x002007bc        0x4 C:/Program Files/TeliumSDK/SDK 9.8.0/SDK/lib_gnu_434/eft30.lib(libgr137.o)
 .bss           0x002007c0        0x8 C:/Program Files/TeliumSDK/SDK 9.8.0/SDK/lib_gnu_434/eft30.lib(libgr25.o)
 .bss           0x002007c8        0x0 C:/Program Files/TeliumSDK/SDK 9.8.0/SDK/lib_gnu_434/eft30.lib(libgr3.o)
 .bss           0x002007c8        0x4 C:/Program Files/TeliumSDK/SDK 9.8.0/SDK/lib_gnu_434/eft30.lib(libgr33.o)
 .bss           0x002007cc        0x4 C:/Program Files/TeliumSDK/SDK 9.8.0/SDK/lib_gnu_434/eft30.lib(libgr35.o)
 .bss           0x002007d0        0x4 C:/Program Files/TeliumSDK/SDK 9.8.0/SDK/lib_gnu_434/eft30.lib(libgr37.o)
 .bss           0x002007d4        0x4 C:/Program Files/TeliumSDK/SDK 9.8.0/SDK/lib_gnu_434/eft30.lib(libgr41.o)
 .bss           0x002007d8        0x4 C:/Program Files/TeliumSDK/SDK 9.8.0/SDK/lib_gnu_434/eft30.lib(libgr49.o)
 .bss           0x002007dc        0x4 C:/Program Files/TeliumSDK/SDK 9.8.0/SDK/lib_gnu_434/eft30.lib(libgr50.o)
 .bss           0x002007e0        0x4 C:/Program Files/TeliumSDK/SDK 9.8.0/SDK/lib_gnu_434/eft30.lib(libgr52.o)
 .bss           0x002007e4        0x4 C:/Program Files/TeliumSDK/SDK 9.8.0/SDK/lib_gnu_434/eft30.lib(libgr7.o)
 .bss           0x002007e8        0x4 C:/Program Files/TeliumSDK/SDK 9.8.0/SDK/lib_gnu_434/eft30.lib(libgr75.o)
 .bss           0x002007ec        0x4 C:/Program Files/TeliumSDK/SDK 9.8.0/SDK/lib_gnu_434/eft30.lib(libgr81.o)
 .bss           0x002007f0        0x4 C:/Program Files/TeliumSDK/SDK 9.8.0/SDK/lib_gnu_434/eft30.lib(libgr82.o)
 .bss           0x002007f4        0x4 C:/Program Files/TeliumSDK/SDK 9.8.0/SDK/lib_gnu_434/eft30.lib(libgr83.o)
 .bss           0x002007f8        0x4 C:/Program Files/TeliumSDK/SDK 9.8.0/SDK/lib_gnu_434/eft30.lib(Tools35.o)
 .bss           0x002007fc        0x4 C:/Program Files/TeliumSDK/SDK 9.8.0/SDK/lib_gnu_434/eft30.lib(Tools36.o)
 .bss           0x00200800        0x0 C:/Program Files/TeliumSDK/SDK 9.8.0/SDK/lib_gnu_434/eft30.lib(gprs1.o)
 .bss           0x00200800        0x0 C:/Program Files/TeliumSDK/SDK 9.8.0/SDK/lib_gnu_434/eft30.lib(gprs11.o)
 .bss           0x00200800        0x0 C:/Program Files/TeliumSDK/SDK 9.8.0/SDK/lib_gnu_434/eft30.lib(gprs13.o)
 .bss           0x00200800        0x0 C:/Program Files/TeliumSDK/SDK 9.8.0/SDK/lib_gnu_434/eft30.lib(gprs15.o)
 .bss           0x00200800        0x0 C:/Program Files/TeliumSDK/SDK 9.8.0/SDK/lib_gnu_434/eft30.lib(gprs17.o)
 .bss           0x00200800        0x0 C:/Program Files/TeliumSDK/SDK 9.8.0/SDK/lib_gnu_434/eft30.lib(gprs19.o)
 .bss           0x00200800        0x0 C:/Program Files/TeliumSDK/SDK 9.8.0/SDK/lib_gnu_434/eft30.lib(gprs29.o)
 .bss           0x00200800        0x0 C:/Program Files/TeliumSDK/SDK 9.8.0/SDK/lib_gnu_434/eft30.lib(gprs32.o)
 .bss           0x00200800        0x0 C:/Program Files/TeliumSDK/SDK 9.8.0/SDK/lib_gnu_434/eft30.lib(hwcnf18.o)
 .bss           0x00200800        0x0 C:/Program Files/TeliumSDK/SDK 9.8.0/SDK/lib_gnu_434/eft30.lib(gprs_lib.o)
 .bss           0x00200800        0x0 C:/Program Files/TeliumSDK/SDK 9.8.0/SDK/lib_gnu_434/eft30.lib(LibAppli.o)
 .bss           0x00200800        0x0 C:/Program Files/TeliumSDK/SDK 9.8.0/SDK/lib_gnu_434/eft30.lib(ctype.o)
 .bss           0x00200800        0x0 C:/Program Files/TeliumSDK/SDK 9.8.0/SDK/lib_gnu_434/eft30.lib(extens.o)
 .bss           0x00200800        0x0 C:/Program Files/TeliumSDK/SDK 9.8.0/SDK/lib_gnu_434/eft30.lib(extens236.o)
 .bss           0x00200800        0x0 C:/Program Files/TeliumSDK/SDK 9.8.0/SDK/lib_gnu_434/eft30.lib(extens237.o)
 .bss           0x00200800        0x0 C:/Program Files/TeliumSDK/SDK 9.8.0/SDK/lib_gnu_434/eft30.lib(param.o)
 .bss           0x00200800        0x0 C:/Program Files/TeliumSDK/SDK 9.8.0/SDK/lib_gnu_434/eft30.lib(saisie.o)
 .bss           0x00200800        0x0 C:/Program Files/TeliumSDK/SDK 9.8.0/SDK/lib_gnu_434/eft30.lib(sv.o)
 .bss           0x00200800        0x0 C:/Program Files/TeliumSDK/SDK 9.8.0/SDK/lib_gnu_434/eft30.lib(libgr.o)
 .bss           0x00200800        0x0 C:/Program Files/TeliumSDK/SDK 9.8.0/SDK/lib_gnu_434/eft30.lib(Tools.o)
 .bss           0x00200800        0x0 C:/Program Files/TeliumSDK/SDK 9.8.0/SDK/lib_gnu_434/eft30.lib(gprs.o)
 .bss           0x00200800        0x0 C:/Program Files/TeliumSDK/SDK 9.8.0/SDK/lib_gnu_434/eft30.lib(hwcnf.o)
 .bss           0x00200800        0x0 C:/Program Files/TeliumSDK/SDK 9.8.0/SDK/lib_gnu_434/trap.lib(trap_1302___STDOUT.o)
 .bss           0x00200800        0x0 C:/Program Files/TeliumSDK/SDK 9.8.0/SDK/lib_gnu_434/trap.lib(trap_1313_fclose.o)
 .bss           0x00200800        0x0 C:/Program Files/TeliumSDK/SDK 9.8.0/SDK/lib_gnu_434/trap.lib(trap_1314_fopen.o)
 .bss           0x00200800        0x0 C:/Program Files/TeliumSDK/SDK 9.8.0/SDK/lib_gnu_434/trap.lib(trap_1319_getc.o)
 .bss           0x00200800        0x0 C:/Program Files/TeliumSDK/SDK 9.8.0/SDK/lib_gnu_434/trap.lib(trap_131B___STDIN.o)
 .bss           0x00200800        0x0 C:/Program Files/TeliumSDK/SDK 9.8.0/SDK/lib_gnu_434/trap.lib(trap_131E_status.o)
 .bss           0x00200800        0x0 C:/Program Files/TeliumSDK/SDK 9.8.0/SDK/lib_gnu_434/trap.lib(trap_1323__vfprintf.o)
 .bss           0x00200800        0x0 C:/Program Files/TeliumSDK/SDK 9.8.0/SDK/lib_gnu_434/trap.lib(trap_1324_vsprintf.o)
 .bss           0x00200800        0x0 C:/Program Files/TeliumSDK/SDK 9.8.0/SDK/lib_gnu_434/trap.lib(trap_1328_putc.o)
 .bss           0x00200800        0x0 C:/Program Files/TeliumSDK/SDK 9.8.0/SDK/lib_gnu_434/trap.lib(trap_1329_ttestall.o)
 .bss           0x00200800        0x0 C:/Program Files/TeliumSDK/SDK 9.8.0/SDK/lib_gnu_434/trap.lib(trap_132C_FormatOem.o)
 .bss           0x00200800        0x0 C:/Program Files/TeliumSDK/SDK 9.8.0/SDK/lib_gnu_434/trap.lib(trap_1348_ObjectGetInfo.o)
 .bss           0x00200800        0x0 C:/Program Files/TeliumSDK/SDK 9.8.0/SDK/lib_gnu_434/trap.lib(trap_1349_ObjectLoad.o)
 .bss           0x00200800        0x0 C:/Program Files/TeliumSDK/SDK 9.8.0/SDK/lib_gnu_434/trap.lib(trap_134B_FreeSpace.o)
 .bss           0x00200800        0x0 C:/Program Files/TeliumSDK/SDK 9.8.0/SDK/lib_gnu_434/trap.lib(trap_134D_ServiceRegister.o)
 .bss           0x00200800        0x0 C:/Program Files/TeliumSDK/SDK 9.8.0/SDK/lib_gnu_434/trap.lib(trap_1350_DllLink.o)
 .bss           0x00200800        0x0 C:/Program Files/TeliumSDK/SDK 9.8.0/SDK/lib_gnu_434/trap.lib(trap_1352_DllUnlink.o)
 .bss           0x00200800        0x0 C:/Program Files/TeliumSDK/SDK 9.8.0/SDK/lib_gnu_434/trap.lib(trap_1356_stdperif.o)
 .bss           0x00200800        0x0 C:/Program Files/TeliumSDK/SDK 9.8.0/SDK/lib_gnu_434/trap.lib(trap_1375_download.o)
 .bss           0x00200800        0x0 C:/Program Files/TeliumSDK/SDK 9.8.0/SDK/lib_gnu_434/trap.lib(trap_1378_OEM_exit.o)
 .bss           0x00200800        0x0 C:/Program Files/TeliumSDK/SDK 9.8.0/SDK/lib_gnu_434/trap.lib(trap_137B_is_iso2.o)
 .bss           0x00200800        0x0 C:/Program Files/TeliumSDK/SDK 9.8.0/SDK/lib_gnu_434/trap.lib(trap_1386_upload_diagnostic_txt.o)
 .bss           0x00200800        0x0 C:/Program Files/TeliumSDK/SDK 9.8.0/SDK/lib_gnu_434/trap.lib(trap_138B_FS_dskcreate.o)
 .bss           0x00200800        0x0 C:/Program Files/TeliumSDK/SDK 9.8.0/SDK/lib_gnu_434/trap.lib(trap_138C_FS_dskkill.o)
 .bss           0x00200800        0x0 C:/Program Files/TeliumSDK/SDK 9.8.0/SDK/lib_gnu_434/trap.lib(trap_138D_FS_mount.o)
 .bss           0x00200800        0x0 C:/Program Files/TeliumSDK/SDK 9.8.0/SDK/lib_gnu_434/trap.lib(trap_138E_FS_unmount.o)
 .bss           0x00200800        0x0 C:/Program Files/TeliumSDK/SDK 9.8.0/SDK/lib_gnu_434/trap.lib(trap_1399_FS_unlink.o)
 .bss           0x00200800        0x0 C:/Program Files/TeliumSDK/SDK 9.8.0/SDK/lib_gnu_434/trap.lib(trap_139B_FS_open.o)
 .bss           0x00200800        0x0 C:/Program Files/TeliumSDK/SDK 9.8.0/SDK/lib_gnu_434/trap.lib(trap_139C_FS_close.o)
 .bss           0x00200800        0x0 C:/Program Files/TeliumSDK/SDK 9.8.0/SDK/lib_gnu_434/trap.lib(trap_139D_FS_read.o)
 .bss           0x00200800        0x0 C:/Program Files/TeliumSDK/SDK 9.8.0/SDK/lib_gnu_434/trap.lib(trap_139E_FS_write.o)
 .bss           0x00200800        0x0 C:/Program Files/TeliumSDK/SDK 9.8.0/SDK/lib_gnu_434/trap.lib(trap_13A1_FS_length.o)
 .bss           0x00200800        0x0 C:/Program Files/TeliumSDK/SDK 9.8.0/SDK/lib_gnu_434/trap.lib(trap_13AB_first_init.o)
 .bss           0x00200800        0x0 C:/Program Files/TeliumSDK/SDK 9.8.0/SDK/lib_gnu_434/trap.lib(trap_13AD_raz_init.o)
 .bss           0x00200800        0x0 C:/Program Files/TeliumSDK/SDK 9.8.0/SDK/lib_gnu_434/trap.lib(trap_13B2_ApplicationGetCurrent.o)
 .bss           0x00200800        0x0 C:/Program Files/TeliumSDK/SDK 9.8.0/SDK/lib_gnu_434/trap.lib(trap_13C2_InitGkDrv.o)
 .bss           0x00200800        0x0 C:/Program Files/TeliumSDK/SDK 9.8.0/SDK/lib_gnu_434/trap.lib(trap_13C4_SoftwareActivate.o)
 .bss           0x00200800        0x0 C:/Program Files/TeliumSDK/SDK 9.8.0/SDK/lib_gnu_434/trap.lib(trap_13CE_closesocket.o)
 .bss           0x00200800        0x0 C:/Program Files/TeliumSDK/SDK 9.8.0/SDK/lib_gnu_434/trap.lib(trap_13CF_connect.o)
 .bss           0x00200800        0x0 C:/Program Files/TeliumSDK/SDK 9.8.0/SDK/lib_gnu_434/trap.lib(trap_13D7_socket.o)
 .bss           0x00200800        0x0 C:/Program Files/TeliumSDK/SDK 9.8.0/SDK/lib_gnu_434/trap.lib(trap_1406_umalloc.o)
 .bss           0x00200800        0x0 C:/Program Files/TeliumSDK/SDK 9.8.0/SDK/lib_gnu_434/trap.lib(trap_1407_ufree.o)
 .bss           0x00200800        0x0 C:/Program Files/TeliumSDK/SDK 9.8.0/SDK/lib_gnu_434/trap.lib(trap_1414_fioctl.o)
 .bss           0x00200800        0x0 C:/Program Files/TeliumSDK/SDK 9.8.0/SDK/lib_gnu_434/trap.lib(trap_142A_urealloc.o)
 .bss           0x00200800        0x0 C:/Program Files/TeliumSDK/SDK 9.8.0/SDK/lib_gnu_434/trap.lib(trap_1432_SystemFioctl.o)
 .bss           0x00200800        0x0 C:/Program Files/TeliumSDK/SDK 9.8.0/SDK/lib_gnu_434/LinkLayerExeInterface.lib(LinkLayerServices.o)
 .bss           0x00200800        0x0 C:/Program Files/TeliumSDK/SDK 9.8.0/SDK/lib_gnu_434/FTP_.lib(FTP.o)
 .bss           0x00200800        0x8 C:/Program Files/TeliumSDK/SDK 9.8.0/SDK/lib_gnu_434/FTP_.lib(FTPC.o)
 .bss           0x00200808       0x14 C:/Program Files/TeliumSDK/SDK 9.8.0/SDK/lib_gnu_434/IP_.lib(IP.o)
 .bss           0x0020081c        0x0 C:/Program Files/TeliumSDK/SDK 9.8.0/SDK/lib_gnu_434/IP_.lib(DNS.o)
 .bss           0x0020081c        0x0 C:/Program Files/TeliumSDK/SDK 9.8.0/SDK/lib_gnu_434/IP_.lib(DefaultOptions.o)
 .bss           0x0020081c        0x0 C:/Program Files/TeliumSDK/SDK 9.8.0/SDK/lib_gnu_434/IP_.lib(EthernetConfig.o)
 .bss           0x0020081c        0x0 C:/Program Files/TeliumSDK/SDK 9.8.0/SDK/lib_gnu_434/IP_.lib(WifiConfig.o)
 .bss           0x0020081c        0x0 C:/Program Files/TeliumSDK/SDK 9.8.0/SDK/lib_gnu_434/libcpatch.o
 .bss           0x0020081c        0x0 C:/Program Files/TeliumSDK/SDK 9.8.0/SDK/lib_gnu_434/eft30.lib(extens280.o)
 .bss           0x0020081c        0x0 C:/Program Files/TeliumSDK/SDK 9.8.0/SDK/lib_gnu_434/trap.lib(trap_13D8_inet_addr.o)
 .bss           0x0020081c        0x0 C:/Program Files/TeliumSDK/SDK 9.8.0/SDK/lib_gnu_434/trap.lib(trap_13DC_PppSetOption.o)
 .bss           0x0020081c        0x0 C:/Program Files/TeliumSDK/SDK 9.8.0/SDK/lib_gnu_434/trap.lib(trap_13E1_fcntlsocketSWI.o)
 .bss           0x0020081c        0x0 C:/Program Files/TeliumSDK/SDK 9.8.0/SDK/lib_gnu_434/trap.lib(trap_13E2_getsockoptSWI.o)
 .bss           0x0020081c        0x0 C:/Program Files/TeliumSDK/SDK 9.8.0/SDK/lib_gnu_434/trap.lib(trap_13E3_recvfromSWI.o)
 .bss           0x0020081c        0x0 C:/Program Files/TeliumSDK/SDK 9.8.0/SDK/lib_gnu_434/trap.lib(trap_13E4_selectsocketSWI.o)
 .bss           0x0020081c        0x0 C:/Program Files/TeliumSDK/SDK 9.8.0/SDK/lib_gnu_434/trap.lib(trap_13E5_sendtoSWI.o)
 .bss           0x0020081c        0x0 C:/Program Files/TeliumSDK/SDK 9.8.0/SDK/lib_gnu_434/trap.lib(trap_13E6_setsockoptSWI.o)
 .bss           0x0020081c        0x0 C:/Program Files/TeliumSDK/SDK 9.8.0/SDK/lib_gnu_434/trap.lib(trap_13E7_ngOSGetErrno.o)
 .bss           0x0020081c        0x0 C:/Program Files/TeliumSDK/SDK 9.8.0/SDK/lib_gnu_434/trap.lib(trap_13E8_ngOSSetErrno.o)
 .bss           0x0020081c        0x0 C:/Program Files/TeliumSDK/SDK 9.8.0/SDK/lib_gnu_434/trap.lib(trap_13E9_ngResolvSetOption.o)
 .bss           0x0020081c        0x0 C:/Program Files/TeliumSDK/SDK 9.8.0/SDK/lib_gnu_434/trap.lib(trap_13EA_ngResolvGetOption.o)
 .bss           0x0020081c        0x0 C:/Program Files/TeliumSDK/SDK 9.8.0/SDK/lib_gnu_434/trap.lib(trap_13ED_gethostbyaddr_rSWI.o)
 .bss           0x0020081c        0x0 C:/Program Files/TeliumSDK/SDK 9.8.0/SDK/lib_gnu_434/trap.lib(trap_13EE_gethostbyname_rSWI.o)
 .bss           0x0020081c        0x0 C:/Program Files/TeliumSDK/SDK 9.8.0/SDK/lib_gnu_434/trap.lib(trap_141D_ngRouteAdd.o)
 .bss           0x0020081c        0x0 C:/Program Files/TeliumSDK/SDK 9.8.0/SDK/lib_gnu_434/trap.lib(trap_141E_ngRouteDelete.o)
 .bss           0x0020081c        0x0 C:/Program Files/TeliumSDK/SDK 9.8.0/SDK/lib_gnu_434/trap.lib(trap_141F_ngRouteDefault.o)
 .bss           0x0020081c        0x0 C:/Program Files/TeliumSDK/SDK 9.8.0/SDK/lib_gnu_434/trap.lib(trap_1426_get_tick_counter.o)
 .bss           0x0020081c        0x0 C:/Program Files/TeliumSDK/SDK 9.8.0/SDK/lib_gnu_434/trap.lib(trap_142B_EthIfControl.o)
 .bss           0x0020081c        0x0 C:/Program Files/TeliumSDK/SDK 9.8.0/SDK/lib_gnu_434/AVL.lib(Proxy.o)
 .bss           0x0020081c        0x0 C:/Program Files/TeliumSDK/SDK 9.8.0/SDK/lib_gnu_434/AVL.lib(Serializer.o)
 .bss           0x0020081c        0x0 C:/Program Files/TeliumSDK/SDK 9.8.0/SDK/lib_gnu_434/AVL.lib(Serializer_Default.o)
 .bss           0x0020081c        0x0 C:/Program Files/TeliumSDK/SDK 9.8.0/SDK/lib_gnu_434/AVL.lib(Serializer_Xml.o)
 .bss           0x0020081c        0x0 C:/Program Files/TeliumSDK/SDK 9.8.0/SDK/lib_gnu_434/AVL.lib(XMLs_ProcessData.o)
 .bss           0x0020081c        0x0 C:/Program Files/TeliumSDK/SDK 9.8.0/SDK/lib_gnu_434/AVL.lib(XMLs_Common.o)
 .bss           0x0020081c        0x0 C:/Program Files/TeliumSDK/SDK 9.8.0/SDK/lib_gnu_434/AVL.lib(XMLs_Deprecated.o)
 .bss           0x0020081c        0x0 C:/Program Files/TeliumSDK/SDK 9.8.0/SDK/lib_gnu_434/AVL.lib(XMLs_Parser_Deprecated.o)
 .bss           0x0020081c        0x0 C:/Program Files/TeliumSDK/SDK 9.8.0/SDK/lib_gnu_434/AVL.lib(Internal.o)
 .bss           0x0020081c        0x0 C:/Program Files/TeliumSDK/SDK 9.8.0/SDK/lib_gnu_434/dll_wifi.lib(wifi.o)
 .bss           0x0020081c        0x0 C:/Program Files/TeliumSDK/SDK 9.8.0/SDK/lib_gnu_434/dll_wifi.lib(wifi1.o)
 .bss           0x0020081c        0x0 C:/Program Files/TeliumSDK/SDK 9.8.0/SDK/lib_gnu_434/dll_wifi.lib(wifi2.o)
 .bss           0x0020081c        0x0 C:/Program Files/TeliumSDK/SDK 9.8.0/SDK/lib_gnu_434/dll_wifi.lib(wifi3.o)
 .bss           0x0020081c        0x0 C:/Program Files/TeliumSDK/SDK 9.8.0/SDK/lib_gnu_434/dll_wifi.lib(wifi4.o)
 .bss           0x0020081c        0x0 C:/Program Files/TeliumSDK/SDK 9.8.0/SDK/lib_gnu_434/dll_wifi.lib(wifi5.o)
 .bss           0x0020081c        0x0 C:/Program Files/TeliumSDK/SDK 9.8.0/SDK/lib_gnu_434/dll_wifi.lib(wifi6.o)
 .bss           0x0020081c        0x0 C:/Program Files/TeliumSDK/SDK 9.8.0/SDK/lib_gnu_434/dll_wifi.lib(wifi7.o)
 .bss           0x0020081c        0x0 C:/Program Files/TeliumSDK/SDK 9.8.0/SDK/lib_gnu_434/dll_wifi.lib(wifi8.o)
 .bss           0x0020081c        0x0 C:/Program Files/TeliumSDK/SDK 9.8.0/SDK/lib_gnu_434/dll_wifi.lib(wifi9.o)
 .bss           0x0020081c        0x0 C:/Program Files/TeliumSDK/SDK 9.8.0/SDK/lib_gnu_434/dll_wifi.lib(wifi10.o)
 .bss           0x0020081c        0x0 C:/Program Files/TeliumSDK/SDK 9.8.0/SDK/lib_gnu_434/dll_wifi.lib(wifi11.o)
 .bss           0x0020081c        0x0 C:/Program Files/TeliumSDK/SDK 9.8.0/SDK/lib_gnu_434/dll_wifi.lib(wifi12.o)
 .bss           0x0020081c        0x0 C:/Program Files/TeliumSDK/SDK 9.8.0/SDK/lib_gnu_434/dll_wifi.lib(wifi13.o)
 .bss           0x0020081c        0x0 C:/Program Files/TeliumSDK/SDK 9.8.0/SDK/lib_gnu_434/dll_wifi.lib(wifi14.o)
 .bss           0x0020081c        0x0 C:/Program Files/TeliumSDK/SDK 9.8.0/SDK/lib_gnu_434/dll_wifi.lib(wifi15.o)
 .bss           0x0020081c        0x0 C:/Program Files/TeliumSDK/SDK 9.8.0/SDK/lib_gnu_434/dll_wifi.lib(wifi16.o)
 .bss           0x0020081c        0x0 C:/Program Files/TeliumSDK/SDK 9.8.0/SDK/lib_gnu_434/dll_wifi.lib(wifi17.o)
 .bss           0x0020081c        0x0 C:/Program Files/TeliumSDK/SDK 9.8.0/SDK/lib_gnu_434/dll_wifi.lib(wifi18.o)
 .bss           0x0020081c        0x0 C:/Program Files/TeliumSDK/SDK 9.8.0/SDK/lib_gnu_434/dll_wifi.lib(wifi19.o)
 .bss           0x0020081c        0x0 C:/Program Files/TeliumSDK/SDK 9.8.0/SDK/lib_gnu_434/dll_wifi.lib(wifi20.o)
 .bss           0x0020081c        0x0 C:/Program Files/TeliumSDK/SDK 9.8.0/SDK/lib_gnu_434/dll_wifi.lib(wifi21.o)
 .bss           0x0020081c        0x0 C:/Program Files/TeliumSDK/SDK 9.8.0/SDK/lib_gnu_434/dll_wifi.lib(wifi22.o)
 .bss           0x0020081c        0x0 C:/Program Files/TeliumSDK/SDK 9.8.0/SDK/lib_gnu_434/dll_wifi.lib(wifi23.o)
 .bss           0x0020081c        0x0 C:/Program Files/TeliumSDK/SDK 9.8.0/SDK/lib_gnu_434/dll_wifi.lib(wifi24.o)
 .bss           0x0020081c        0x0 C:/Program Files/TeliumSDK/SDK 9.8.0/SDK/lib_gnu_434/dll_wifi.lib(wifi25.o)
 .bss           0x0020081c        0x0 C:/Program Files/TeliumSDK/SDK 9.8.0/SDK/lib_gnu_434/dll_wifi.lib(wifi26.o)
 .bss           0x0020081c        0x0 C:/Program Files/TeliumSDK/SDK 9.8.0/SDK/lib_gnu_434/dll_wifi.lib(wifi27.o)
 .bss           0x0020081c        0x0 C:/Program Files/TeliumSDK/SDK 9.8.0/SDK/lib_gnu_434/dll_wifi.lib(wifi28.o)
 .bss           0x0020081c        0x0 C:/Program Files/TeliumSDK/SDK 9.8.0/SDK/lib_gnu_434/dll_wifi.lib(wifi29.o)
 .bss           0x0020081c        0x0 C:/Program Files/TeliumSDK/SDK 9.8.0/SDK/lib_gnu_434/dll_wifi.lib(wifi30.o)
 .bss           0x0020081c        0x0 C:/Program Files/TeliumSDK/SDK 9.8.0/SDK/lib_gnu_434/dll_wifi.lib(wifi31.o)
 .bss           0x0020081c        0x0 C:/Program Files/TeliumSDK/SDK 9.8.0/SDK/lib_gnu_434/dll_wifi.lib(wifi32.o)
 .bss           0x0020081c        0x0 C:/Program Files/TeliumSDK/SDK 9.8.0/SDK/lib_gnu_434/dll_wifi.lib(wifi33.o)
 .bss           0x0020081c        0x0 C:/Program Files/TeliumSDK/SDK 9.8.0/SDK/lib_gnu_434/dll_wifi.lib(wifi34.o)
 .bss           0x0020081c        0x0 C:/Program Files/TeliumSDK/SDK 9.8.0/SDK/lib_gnu_434/dll_wifi.lib(wifi35.o)
 .bss           0x0020081c        0x0 C:/Program Files/TeliumSDK/SDK 9.8.0/SDK/lib_gnu_434/trap.lib(trap_13C1_trace.o)
 .bss           0x0020081c        0x0 C:/Program Files/Ingenico/IngeDev_7/plugins/com.ingenico.ingedev.telium.bin.win32.gnuarm.v434_7.16.0.6/os/win32/GNUARM/4.3.4/arm-elf/lib/thumb/soft/interwork/libc.a(lib_a-memcmp.o)
 .bss           0x0020081c        0x0 C:/Program Files/Ingenico/IngeDev_7/plugins/com.ingenico.ingedev.telium.bin.win32.gnuarm.v434_7.16.0.6/os/win32/GNUARM/4.3.4/arm-elf/lib/thumb/soft/interwork/libc.a(lib_a-memcpy.o)
 .bss           0x0020081c        0x0 C:/Program Files/Ingenico/IngeDev_7/plugins/com.ingenico.ingedev.telium.bin.win32.gnuarm.v434_7.16.0.6/os/win32/GNUARM/4.3.4/arm-elf/lib/thumb/soft/interwork/libc.a(lib_a-memmove.o)
 .bss           0x0020081c        0x0 C:/Program Files/Ingenico/IngeDev_7/plugins/com.ingenico.ingedev.telium.bin.win32.gnuarm.v434_7.16.0.6/os/win32/GNUARM/4.3.4/arm-elf/lib/thumb/soft/interwork/libc.a(lib_a-memset.o)
 .bss           0x0020081c        0x0 C:/Program Files/Ingenico/IngeDev_7/plugins/com.ingenico.ingedev.telium.bin.win32.gnuarm.v434_7.16.0.6/os/win32/GNUARM/4.3.4/arm-elf/lib/thumb/soft/interwork/libc.a(lib_a-snprintf.o)
 .bss           0x0020081c        0x0 C:/Program Files/Ingenico/IngeDev_7/plugins/com.ingenico.ingedev.telium.bin.win32.gnuarm.v434_7.16.0.6/os/win32/GNUARM/4.3.4/arm-elf/lib/thumb/soft/interwork/libc.a(lib_a-strcat.o)
 .bss           0x0020081c        0x0 C:/Program Files/Ingenico/IngeDev_7/plugins/com.ingenico.ingedev.telium.bin.win32.gnuarm.v434_7.16.0.6/os/win32/GNUARM/4.3.4/arm-elf/lib/thumb/soft/interwork/libc.a(lib_a-strchr.o)
 .bss           0x0020081c        0x0 C:/Program Files/Ingenico/IngeDev_7/plugins/com.ingenico.ingedev.telium.bin.win32.gnuarm.v434_7.16.0.6/os/win32/GNUARM/4.3.4/arm-elf/lib/thumb/soft/interwork/libc.a(lib_a-strcmp.o)
 .bss           0x0020081c        0x0 C:/Program Files/Ingenico/IngeDev_7/plugins/com.ingenico.ingedev.telium.bin.win32.gnuarm.v434_7.16.0.6/os/win32/GNUARM/4.3.4/arm-elf/lib/thumb/soft/interwork/libc.a(lib_a-strcpy.o)
 .bss           0x0020081c        0x0 C:/Program Files/Ingenico/IngeDev_7/plugins/com.ingenico.ingedev.telium.bin.win32.gnuarm.v434_7.16.0.6/os/win32/GNUARM/4.3.4/arm-elf/lib/thumb/soft/interwork/libc.a(lib_a-strlen.o)
 .bss           0x0020081c        0x0 C:/Program Files/Ingenico/IngeDev_7/plugins/com.ingenico.ingedev.telium.bin.win32.gnuarm.v434_7.16.0.6/os/win32/GNUARM/4.3.4/arm-elf/lib/thumb/soft/interwork/libc.a(lib_a-strncat.o)
 .bss           0x0020081c        0x0 C:/Program Files/Ingenico/IngeDev_7/plugins/com.ingenico.ingedev.telium.bin.win32.gnuarm.v434_7.16.0.6/os/win32/GNUARM/4.3.4/arm-elf/lib/thumb/soft/interwork/libc.a(lib_a-strncpy.o)
 .bss           0x0020081c        0x0 C:/Program Files/Ingenico/IngeDev_7/plugins/com.ingenico.ingedev.telium.bin.win32.gnuarm.v434_7.16.0.6/os/win32/GNUARM/4.3.4/arm-elf/lib/thumb/soft/interwork/libc.a(lib_a-strstr.o)
 .bss           0x0020081c        0x0 C:/Program Files/Ingenico/IngeDev_7/plugins/com.ingenico.ingedev.telium.bin.win32.gnuarm.v434_7.16.0.6/os/win32/GNUARM/4.3.4/arm-elf/lib/thumb/soft/interwork/libc.a(lib_a-strtok.o)
 .bss           0x0020081c        0x0 C:/Program Files/Ingenico/IngeDev_7/plugins/com.ingenico.ingedev.telium.bin.win32.gnuarm.v434_7.16.0.6/os/win32/GNUARM/4.3.4/arm-elf/lib/thumb/soft/interwork/libc.a(lib_a-strtok_r.o)
 .bss           0x0020081c        0x0 C:/Program Files/Ingenico/IngeDev_7/plugins/com.ingenico.ingedev.telium.bin.win32.gnuarm.v434_7.16.0.6/os/win32/GNUARM/4.3.4/arm-elf/lib/thumb/soft/interwork/libc.a(lib_a-strtoul.o)
 .bss           0x0020081c        0x0 C:/Program Files/Ingenico/IngeDev_7/plugins/com.ingenico.ingedev.telium.bin.win32.gnuarm.v434_7.16.0.6/os/win32/GNUARM/4.3.4/arm-elf/lib/thumb/soft/interwork/libc.a(lib_a-svfprintf.o)
 .bss           0x0020081c        0x0 C:/Program Files/Ingenico/IngeDev_7/plugins/com.ingenico.ingedev.telium.bin.win32.gnuarm.v434_7.16.0.6/os/win32/GNUARM/4.3.4/arm-elf/lib/thumb/soft/interwork/libc.a(lib_a-ctype_.o)
 .bss           0x0020081c        0x0 C:/Program Files/Ingenico/IngeDev_7/plugins/com.ingenico.ingedev.telium.bin.win32.gnuarm.v434_7.16.0.6/os/win32/GNUARM/4.3.4/arm-elf/lib/thumb/soft/interwork/libc.a(lib_a-dtoa.o)
 .bss           0x0020081c        0x0 C:/Program Files/Ingenico/IngeDev_7/plugins/com.ingenico.ingedev.telium.bin.win32.gnuarm.v434_7.16.0.6/os/win32/GNUARM/4.3.4/arm-elf/lib/thumb/soft/interwork/libc.a(lib_a-impure.o)
 .bss           0x0020081c        0xc C:/Program Files/Ingenico/IngeDev_7/plugins/com.ingenico.ingedev.telium.bin.win32.gnuarm.v434_7.16.0.6/os/win32/GNUARM/4.3.4/arm-elf/lib/thumb/soft/interwork/libc.a(lib_a-locale.o)
                0x0020081c                __nlocale_changed
                0x00200820                __mlocale_changed
                0x00200824                _PathLocale
 .bss           0x00200828        0x0 C:/Program Files/Ingenico/IngeDev_7/plugins/com.ingenico.ingedev.telium.bin.win32.gnuarm.v434_7.16.0.6/os/win32/GNUARM/4.3.4/arm-elf/lib/thumb/soft/interwork/libc.a(lib_a-memchr.o)
 .bss           0x00200828        0x0 C:/Program Files/Ingenico/IngeDev_7/plugins/com.ingenico.ingedev.telium.bin.win32.gnuarm.v434_7.16.0.6/os/win32/GNUARM/4.3.4/arm-elf/lib/thumb/soft/interwork/libc.a(lib_a-mprec.o)
 .bss           0x00200828        0x0 C:/Program Files/Ingenico/IngeDev_7/plugins/com.ingenico.ingedev.telium.bin.win32.gnuarm.v434_7.16.0.6/os/win32/GNUARM/4.3.4/arm-elf/lib/thumb/soft/interwork/libc.a(lib_a-s_fpclassify.o)
 .bss           0x00200828        0x0 C:/Program Files/Ingenico/IngeDev_7/plugins/com.ingenico.ingedev.telium.bin.win32.gnuarm.v434_7.16.0.6/os/win32/GNUARM/4.3.4/arm-elf/lib/thumb/soft/interwork/libc.a(lib_a-svfiprintf.o)
 .bss           0x00200828        0x0 C:/Program Files/Ingenico/IngeDev_7/plugins/com.ingenico.ingedev.telium.bin.win32.gnuarm.v434_7.16.0.6/os/win32/GNUARM/4.3.4/lib/gcc/arm-elf/4.3.4/thumb/soft/interwork/libgcc.a(_udivsi3.o)
 .bss           0x00200828        0x0 C:/Program Files/Ingenico/IngeDev_7/plugins/com.ingenico.ingedev.telium.bin.win32.gnuarm.v434_7.16.0.6/os/win32/GNUARM/4.3.4/lib/gcc/arm-elf/4.3.4/thumb/soft/interwork/libgcc.a(_divsi3.o)
 .bss           0x00200828        0x0 C:/Program Files/Ingenico/IngeDev_7/plugins/com.ingenico.ingedev.telium.bin.win32.gnuarm.v434_7.16.0.6/os/win32/GNUARM/4.3.4/lib/gcc/arm-elf/4.3.4/thumb/soft/interwork/libgcc.a(_umodsi3.o)
 .bss           0x00200828        0x0 C:/Program Files/Ingenico/IngeDev_7/plugins/com.ingenico.ingedev.telium.bin.win32.gnuarm.v434_7.16.0.6/os/win32/GNUARM/4.3.4/lib/gcc/arm-elf/4.3.4/thumb/soft/interwork/libgcc.a(_modsi3.o)
 .bss           0x00200828        0x0 C:/Program Files/Ingenico/IngeDev_7/plugins/com.ingenico.ingedev.telium.bin.win32.gnuarm.v434_7.16.0.6/os/win32/GNUARM/4.3.4/lib/gcc/arm-elf/4.3.4/thumb/soft/interwork/libgcc.a(_dvmd_tls.o)
 .bss           0x00200828        0x0 C:/Program Files/Ingenico/IngeDev_7/plugins/com.ingenico.ingedev.telium.bin.win32.gnuarm.v434_7.16.0.6/os/win32/GNUARM/4.3.4/lib/gcc/arm-elf/4.3.4/thumb/soft/interwork/libgcc.a(_addsubdf3.o)
 .bss           0x00200828        0x0 C:/Program Files/Ingenico/IngeDev_7/plugins/com.ingenico.ingedev.telium.bin.win32.gnuarm.v434_7.16.0.6/os/win32/GNUARM/4.3.4/lib/gcc/arm-elf/4.3.4/thumb/soft/interwork/libgcc.a(_muldivdf3.o)
 .bss           0x00200828        0x0 C:/Program Files/Ingenico/IngeDev_7/plugins/com.ingenico.ingedev.telium.bin.win32.gnuarm.v434_7.16.0.6/os/win32/GNUARM/4.3.4/lib/gcc/arm-elf/4.3.4/thumb/soft/interwork/libgcc.a(_cmpdf2.o)
 .bss           0x00200828        0x0 C:/Program Files/Ingenico/IngeDev_7/plugins/com.ingenico.ingedev.telium.bin.win32.gnuarm.v434_7.16.0.6/os/win32/GNUARM/4.3.4/lib/gcc/arm-elf/4.3.4/thumb/soft/interwork/libgcc.a(_fixdfsi.o)
 *(.gnu.linkonce.b.*)
 *(COMMON)
 COMMON         0x00200828     0x1900 Obj/GNU_ARM_DEBUG/Backlight.o
                0x00200828                produto
 COMMON         0x00202128      0x26e Obj/GNU_ARM_DEBUG/Boleto.o
                0x00202128                config
 COMMON         0x00202396       0x2e Obj/GNU_ARM_DEBUG/Inicio.o
                0x00202396                msgtela
 COMMON         0x002023c4        0x4 C:/Program Files/TeliumSDK/SDK 9.8.0/SDK/lib_gnu_434/eft30.lib(extens119.o)
                0x002023c4                _StateHeaderAddress
 COMMON         0x002023c8        0x4 C:/Program Files/TeliumSDK/SDK 9.8.0/SDK/lib_gnu_434/eft30.lib(extens134.o)
                0x002023c8                _IsHeaderActivatedAdress
 COMMON         0x002023cc        0x4 C:/Program Files/TeliumSDK/SDK 9.8.0/SDK/lib_gnu_434/eft30.lib(extens201.o)
                0x002023cc                _GetHeaderSizeAddress
 COMMON         0x002023d0        0x4 C:/Program Files/TeliumSDK/SDK 9.8.0/SDK/lib_gnu_434/eft30.lib(extens232.o)
                0x002023d0                _BeepAddress
 COMMON         0x002023d4        0x4 C:/Program Files/TeliumSDK/SDK 9.8.0/SDK/lib_gnu_434/eft30.lib(extens54.o)
                0x002023d4                _longto_dAddress
 COMMON         0x002023d8        0x4 C:/Program Files/TeliumSDK/SDK 9.8.0/SDK/lib_gnu_434/eft30.lib(libgr3.o)
                0x002023d8                __SetFontAddress
 COMMON         0x002023dc        0x4 C:/Program Files/TeliumSDK/SDK 9.8.0/SDK/lib_gnu_434/eft30.lib(gprs1.o)
                0x002023dc                _gprs_connectAddress
 COMMON         0x002023e0        0x4 C:/Program Files/TeliumSDK/SDK 9.8.0/SDK/lib_gnu_434/eft30.lib(gprs11.o)
                0x002023e0                _tcp_connect_to_serverAddress
 COMMON         0x002023e4        0x4 C:/Program Files/TeliumSDK/SDK 9.8.0/SDK/lib_gnu_434/eft30.lib(gprs13.o)
                0x002023e4                _tcp_send_to_serverAddress
 COMMON         0x002023e8        0x4 C:/Program Files/TeliumSDK/SDK 9.8.0/SDK/lib_gnu_434/eft30.lib(gprs15.o)
                0x002023e8                _tcp_recv_from_serverAddress
 COMMON         0x002023ec        0x4 C:/Program Files/TeliumSDK/SDK 9.8.0/SDK/lib_gnu_434/eft30.lib(gprs17.o)
                0x002023ec                _tcp_disconnect_from_serverAddress
 COMMON         0x002023f0        0x4 C:/Program Files/TeliumSDK/SDK 9.8.0/SDK/lib_gnu_434/eft30.lib(gprs19.o)
                0x002023f0                _gprs_stopAddress
 COMMON         0x002023f4        0x4 C:/Program Files/TeliumSDK/SDK 9.8.0/SDK/lib_gnu_434/eft30.lib(gprs29.o)
                0x002023f4                _gprs_enableAddress
 COMMON         0x002023f8        0x4 C:/Program Files/TeliumSDK/SDK 9.8.0/SDK/lib_gnu_434/eft30.lib(gprs32.o)
                0x002023f8                _gprs_ppp_disconnectAddress
 COMMON         0x002023fc        0x4 C:/Program Files/TeliumSDK/SDK 9.8.0/SDK/lib_gnu_434/eft30.lib(hwcnf18.o)
                0x002023fc                _HWCNF_SetBacklightLevelEx
 COMMON         0x00202400        0x4 C:/Program Files/TeliumSDK/SDK 9.8.0/SDK/lib_gnu_434/eft30.lib(extens.o)
                0x00202400                DllGetProcAddress3
 COMMON         0x00202404        0x4 C:/Program Files/TeliumSDK/SDK 9.8.0/SDK/lib_gnu_434/eft30.lib(extens236.o)
                0x00202404                _TM_GetScreenSizeAddress
 COMMON         0x00202408        0x4 C:/Program Files/TeliumSDK/SDK 9.8.0/SDK/lib_gnu_434/eft30.lib(extens237.o)
                0x00202408                _TM_CreateGraphicsAddress
 COMMON         0x0020240c        0x4 C:/Program Files/TeliumSDK/SDK 9.8.0/SDK/lib_gnu_434/eft30.lib(param.o)
                0x0020240c                DllGetProcAddress7
 COMMON         0x00202410        0x4 C:/Program Files/TeliumSDK/SDK 9.8.0/SDK/lib_gnu_434/eft30.lib(saisie.o)
                0x00202410                DllGetProcAddress11
 COMMON         0x00202414        0x4 C:/Program Files/TeliumSDK/SDK 9.8.0/SDK/lib_gnu_434/eft30.lib(sv.o)
                0x00202414                DllGetProcAddress12
 COMMON         0x00202418        0x4 C:/Program Files/TeliumSDK/SDK 9.8.0/SDK/lib_gnu_434/eft30.lib(libgr.o)
                0x00202418                DllGetProcAddress6
 COMMON         0x0020241c        0x4 C:/Program Files/TeliumSDK/SDK 9.8.0/SDK/lib_gnu_434/eft30.lib(Tools.o)
                0x0020241c                DllGetProcAddressTools
 COMMON         0x00202420        0x4 C:/Program Files/TeliumSDK/SDK 9.8.0/SDK/lib_gnu_434/eft30.lib(gprs.o)
                0x00202420                DllGetProcAddress13
 COMMON         0x00202424        0x4 C:/Program Files/TeliumSDK/SDK 9.8.0/SDK/lib_gnu_434/eft30.lib(hwcnf.o)
                0x00202424                DllGetProcAddress16
 COMMON         0x00202428        0x4 C:/Program Files/TeliumSDK/SDK 9.8.0/SDK/lib_gnu_434/eft30.lib(extens280.o)
                0x00202428                _USR_ServiceCallAddress
 COMMON         0x0020242c        0x4 C:/Program Files/TeliumSDK/SDK 9.8.0/SDK/lib_gnu_434/dll_wifi.lib(wifi1.o)
                0x0020242c                _Wifi_IsDevicePresent
 COMMON         0x00202430        0x4 C:/Program Files/TeliumSDK/SDK 9.8.0/SDK/lib_gnu_434/dll_wifi.lib(wifi2.o)
                0x00202430                _Wifi_IsConnected
 COMMON         0x00202434        0x4 C:/Program Files/TeliumSDK/SDK 9.8.0/SDK/lib_gnu_434/dll_wifi.lib(wifi3.o)
                0x00202434                _Wifi_Essid
 COMMON         0x00202438        0x4 C:/Program Files/TeliumSDK/SDK 9.8.0/SDK/lib_gnu_434/dll_wifi.lib(wifi4.o)
                0x00202438                _Wifi_Bssid
 COMMON         0x0020243c        0x4 C:/Program Files/TeliumSDK/SDK 9.8.0/SDK/lib_gnu_434/dll_wifi.lib(wifi5.o)
                0x0020243c                _Wifi_RSSI
 COMMON         0x00202440        0x4 C:/Program Files/TeliumSDK/SDK 9.8.0/SDK/lib_gnu_434/dll_wifi.lib(wifi6.o)
                0x00202440                _Wifi_SignalIndication
 COMMON         0x00202444        0x4 C:/Program Files/TeliumSDK/SDK 9.8.0/SDK/lib_gnu_434/dll_wifi.lib(wifi7.o)
                0x00202444                _Wifi_GetMacAddress
 COMMON         0x00202448        0x4 C:/Program Files/TeliumSDK/SDK 9.8.0/SDK/lib_gnu_434/dll_wifi.lib(wifi8.o)
                0x00202448                _Wifi_GetIpAddress
 COMMON         0x0020244c        0x4 C:/Program Files/TeliumSDK/SDK 9.8.0/SDK/lib_gnu_434/dll_wifi.lib(wifi9.o)
                0x0020244c                _Wifi_GetNetmask
 COMMON         0x00202450        0x4 C:/Program Files/TeliumSDK/SDK 9.8.0/SDK/lib_gnu_434/dll_wifi.lib(wifi10.o)
                0x00202450                _Wifi_GetDNS1
 COMMON         0x00202454        0x4 C:/Program Files/TeliumSDK/SDK 9.8.0/SDK/lib_gnu_434/dll_wifi.lib(wifi11.o)
                0x00202454                _Wifi_GetDNS2
 COMMON         0x00202458        0x4 C:/Program Files/TeliumSDK/SDK 9.8.0/SDK/lib_gnu_434/dll_wifi.lib(wifi12.o)
                0x00202458                _Wifi_GetBootproto
 COMMON         0x0020245c        0x4 C:/Program Files/TeliumSDK/SDK 9.8.0/SDK/lib_gnu_434/dll_wifi.lib(wifi13.o)
                0x0020245c                _Wifi_GetDHCPGateway
 COMMON         0x00202460        0x4 C:/Program Files/TeliumSDK/SDK 9.8.0/SDK/lib_gnu_434/dll_wifi.lib(wifi14.o)
                0x00202460                _Wifi_GetDHCPDNS
 COMMON         0x00202464        0x4 C:/Program Files/TeliumSDK/SDK 9.8.0/SDK/lib_gnu_434/dll_wifi.lib(wifi15.o)
                0x00202464                _Wifi_ProfileAdd
 COMMON         0x00202468        0x4 C:/Program Files/TeliumSDK/SDK 9.8.0/SDK/lib_gnu_434/dll_wifi.lib(wifi16.o)
                0x00202468                _Wifi_ProfileSetActive
 COMMON         0x0020246c        0x4 C:/Program Files/TeliumSDK/SDK 9.8.0/SDK/lib_gnu_434/dll_wifi.lib(wifi17.o)
                0x0020246c                _Wifi_ProfileModify
 COMMON         0x00202470        0x4 C:/Program Files/TeliumSDK/SDK 9.8.0/SDK/lib_gnu_434/dll_wifi.lib(wifi18.o)
                0x00202470                _Wifi_ProfileRemove
 COMMON         0x00202474        0x4 C:/Program Files/TeliumSDK/SDK 9.8.0/SDK/lib_gnu_434/dll_wifi.lib(wifi19.o)
                0x00202474                _Wifi_AccessPointScan
 COMMON         0x00202478        0x4 C:/Program Files/TeliumSDK/SDK 9.8.0/SDK/lib_gnu_434/dll_wifi.lib(wifi20.o)
                0x00202478                _Wifi_AccessPointList
 COMMON         0x0020247c        0x4 C:/Program Files/TeliumSDK/SDK 9.8.0/SDK/lib_gnu_434/dll_wifi.lib(wifi21.o)
                0x0020247c                _Wifi_ProfileGetList
 COMMON         0x00202480        0x4 C:/Program Files/TeliumSDK/SDK 9.8.0/SDK/lib_gnu_434/dll_wifi.lib(wifi22.o)
                0x00202480                _Wifi_GetKeepAlive
 COMMON         0x00202484        0x4 C:/Program Files/TeliumSDK/SDK 9.8.0/SDK/lib_gnu_434/dll_wifi.lib(wifi23.o)
                0x00202484                _Wifi_SetKeepAlive
 COMMON         0x00202488        0x4 C:/Program Files/TeliumSDK/SDK 9.8.0/SDK/lib_gnu_434/dll_wifi.lib(wifi24.o)
                0x00202488                _Wifi_GetScanResults
 COMMON         0x0020248c        0x4 C:/Program Files/TeliumSDK/SDK 9.8.0/SDK/lib_gnu_434/dll_wifi.lib(wifi25.o)
                0x0020248c                _Wifi_SetIpAddress
 COMMON         0x00202490        0x4 C:/Program Files/TeliumSDK/SDK 9.8.0/SDK/lib_gnu_434/dll_wifi.lib(wifi26.o)
                0x00202490                _Wifi_SetNetmask
 COMMON         0x00202494        0x4 C:/Program Files/TeliumSDK/SDK 9.8.0/SDK/lib_gnu_434/dll_wifi.lib(wifi27.o)
                0x00202494                _Wifi_SetDNS1
 COMMON         0x00202498        0x4 C:/Program Files/TeliumSDK/SDK 9.8.0/SDK/lib_gnu_434/dll_wifi.lib(wifi28.o)
                0x00202498                _Wifi_SetDNS2
 COMMON         0x0020249c        0x4 C:/Program Files/TeliumSDK/SDK 9.8.0/SDK/lib_gnu_434/dll_wifi.lib(wifi29.o)
                0x0020249c                _Wifi_SetBootproto
 COMMON         0x002024a0        0x4 C:/Program Files/TeliumSDK/SDK 9.8.0/SDK/lib_gnu_434/dll_wifi.lib(wifi30.o)
                0x002024a0                _Wifi_SetDHCPGateway
 COMMON         0x002024a4        0x4 C:/Program Files/TeliumSDK/SDK 9.8.0/SDK/lib_gnu_434/dll_wifi.lib(wifi31.o)
                0x002024a4                _Wifi_SetDHCPDNS
 COMMON         0x002024a8        0x4 C:/Program Files/TeliumSDK/SDK 9.8.0/SDK/lib_gnu_434/dll_wifi.lib(wifi32.o)
                0x002024a8                _Wifi_GetGateway
 COMMON         0x002024ac        0x4 C:/Program Files/TeliumSDK/SDK 9.8.0/SDK/lib_gnu_434/dll_wifi.lib(wifi33.o)
                0x002024ac                _Wifi_SetGateway
 COMMON         0x002024b0        0x4 C:/Program Files/TeliumSDK/SDK 9.8.0/SDK/lib_gnu_434/dll_wifi.lib(wifi34.o)
                0x002024b0                _Wifi_GetRoamingPolicy
 COMMON         0x002024b4        0x4 C:/Program Files/TeliumSDK/SDK 9.8.0/SDK/lib_gnu_434/dll_wifi.lib(wifi35.o)
                0x002024b4                _Wifi_SetRoamingPolicy
                0x002024b8                __bss_end = .
                0x002024b8                PROVIDE (end, .)
LOAD Obj/GNU_ARM_DEBUG/Backlight.o
LOAD Obj/GNU_ARM_DEBUG/Boleto.o
LOAD Obj/GNU_ARM_DEBUG/Conn.o
LOAD Obj/GNU_ARM_DEBUG/Dialogs.o
LOAD Obj/GNU_ARM_DEBUG/Entry.o
LOAD Obj/GNU_ARM_DEBUG/File.o
LOAD Obj/GNU_ARM_DEBUG/FTP.o
LOAD Obj/GNU_ARM_DEBUG/GPRS.o
LOAD Obj/GNU_ARM_DEBUG/HTTP.o
LOAD Obj/GNU_ARM_DEBUG/Inicio.o
LOAD Obj/GNU_ARM_DEBUG/Main.o
LOAD Obj/GNU_ARM_DEBUG/Menus.o
LOAD Obj/GNU_ARM_DEBUG/NTP.o
LOAD Obj/GNU_ARM_DEBUG/Sistema.o
LOAD Obj/GNU_ARM_DEBUG/Recarga.o
LOAD Obj/GNU_ARM_DEBUG/cstartup.o
LOAD Obj/GNU_ARM_DEBUG/__ing_cguard.o
LOAD Obj/GNU_ARM_DEBUG/__ing_getRand_dateXORSerial.o
START GROUP
LOAD C:/Program Files/TeliumSDK/SDK 9.8.0/SDK/lib_gnu_434/eft30.lib
LOAD C:/Program Files/TeliumSDK/SDK 9.8.0/SDK/lib_gnu_434/trap.lib
LOAD C:/Program Files/TeliumSDK/SDK 9.8.0/SDK/lib_gnu_434/IAPP.lib
LOAD C:/Program Files/TeliumSDK/SDK 9.8.0/SDK/lib_gnu_434/AVL.lib
LOAD C:/Program Files/TeliumSDK/SDK 9.8.0/SDK/lib_gnu_434/LinkLayerExeInterface.lib
LOAD C:/Program Files/TeliumSDK/SDK 9.8.0/SDK/lib_gnu_434/SEC.lib
LOAD C:/Program Files/TeliumSDK/SDK 9.8.0/SDK/lib_gnu_434/E2EE_DLL.lib
LOAD C:/Program Files/TeliumSDK/SDK 9.8.0/SDK/lib_gnu_434/Digest.lib
LOAD C:/Program Files/TeliumSDK/SDK 9.8.0/SDK/lib_gnu_434/SEC_extend.lib
LOAD C:/Program Files/TeliumSDK/SDK 9.8.0/SDK/lib_gnu_434/dll_wifi.lib
LOAD C:/Program Files/TeliumSDK/SDK 9.8.0/SDK/lib_gnu_434/FTP_.lib
LOAD C:/Program Files/TeliumSDK/SDK 9.8.0/SDK/lib_gnu_434/SSL_.lib
LOAD C:/Program Files/TeliumSDK/SDK 9.8.0/SDK/lib_gnu_434/IP_.lib
LOAD C:/Program Files/TeliumSDK/SDK 9.8.0/SDK/lib_gnu_434/SNMP_.lib
LOAD C:/Program Files/TeliumSDK/SDK 9.8.0/SDK/lib_gnu_434/IMG_.lib
LOAD C:/Program Files/TeliumSDK/SDK 9.8.0/SDK/lib_gnu_434/TPass.lib
LOAD C:/Program Files/TeliumSDK/SDK 9.8.0/SDK/lib_gnu_434/Mifare.lib
LOAD C:/Program Files/TeliumSDK/SDK 9.8.0/SDK/lib_gnu_434/GTL.lib
LOAD C:/Program Files/TeliumSDK/SDK 9.8.0/SDK/lib_gnu_434/libcpatch.o
LOAD C:/Program Files/TeliumSDK/SDK 9.8.0/SDK/lib_gnu_434/NDEF.lib
END GROUP
LOAD C:/Program Files/Ingenico/IngeDev_7/plugins/com.ingenico.ingedev.telium.bin.win32.gnuarm.v434_7.16.0.6/os/win32/GNUARM/4.3.4/arm-elf/lib/thumb/soft/interwork/libsupc++.a
LOAD C:/Program Files/Ingenico/IngeDev_7/plugins/com.ingenico.ingedev.telium.bin.win32.gnuarm.v434_7.16.0.6/os/win32/GNUARM/4.3.4/arm-elf/lib/thumb/soft/interwork/libc.a
LOAD C:/Program Files/Ingenico/IngeDev_7/plugins/com.ingenico.ingedev.telium.bin.win32.gnuarm.v434_7.16.0.6/os/win32/GNUARM/4.3.4/lib/gcc/arm-elf/4.3.4/thumb/soft/interwork/libgcc.a
OUTPUT(Obj/GNU_ARM_DEBUG/OPUS.axf elf32-littlearm)

.debug_abbrev   0x00000000     0x4d87
 .debug_abbrev  0x00000000      0x10d Obj/GNU_ARM_DEBUG/Backlight.o
 .debug_abbrev  0x0000010d      0x260 Obj/GNU_ARM_DEBUG/Boleto.o
 .debug_abbrev  0x0000036d      0x1bd Obj/GNU_ARM_DEBUG/Conn.o
 .debug_abbrev  0x0000052a      0x2a0 Obj/GNU_ARM_DEBUG/Dialogs.o
 .debug_abbrev  0x000007ca      0x286 Obj/GNU_ARM_DEBUG/Entry.o
 .debug_abbrev  0x00000a50      0x176 Obj/GNU_ARM_DEBUG/File.o
 .debug_abbrev  0x00000bc6      0x19f Obj/GNU_ARM_DEBUG/FTP.o
 .debug_abbrev  0x00000d65      0x16a Obj/GNU_ARM_DEBUG/GPRS.o
 .debug_abbrev  0x00000ecf      0x1f5 Obj/GNU_ARM_DEBUG/HTTP.o
 .debug_abbrev  0x000010c4      0x133 Obj/GNU_ARM_DEBUG/Inicio.o
 .debug_abbrev  0x000011f7      0x124 Obj/GNU_ARM_DEBUG/Main.o
 .debug_abbrev  0x0000131b      0x2ab Obj/GNU_ARM_DEBUG/Menus.o
 .debug_abbrev  0x000015c6      0x110 Obj/GNU_ARM_DEBUG/NTP.o
 .debug_abbrev  0x000016d6      0x150 Obj/GNU_ARM_DEBUG/Sistema.o
 .debug_abbrev  0x00001826      0x1ea Obj/GNU_ARM_DEBUG/Recarga.o
 .debug_abbrev  0x00001a10      0x1ab C:/Program Files/TeliumSDK/SDK 9.8.0/SDK/lib_gnu_434/libcpatch.o
 .debug_abbrev  0x00001bbb      0x17e C:/Program Files/TeliumSDK/SDK 9.8.0/SDK/lib_gnu_434/dll_wifi.lib(wifi.o)
 .debug_abbrev  0x00001d39       0xab C:/Program Files/TeliumSDK/SDK 9.8.0/SDK/lib_gnu_434/dll_wifi.lib(wifi1.o)
 .debug_abbrev  0x00001de4       0x7e C:/Program Files/TeliumSDK/SDK 9.8.0/SDK/lib_gnu_434/dll_wifi.lib(wifi2.o)
 .debug_abbrev  0x00001e62       0x83 C:/Program Files/TeliumSDK/SDK 9.8.0/SDK/lib_gnu_434/dll_wifi.lib(wifi3.o)
 .debug_abbrev  0x00001ee5       0x83 C:/Program Files/TeliumSDK/SDK 9.8.0/SDK/lib_gnu_434/dll_wifi.lib(wifi4.o)
 .debug_abbrev  0x00001f68       0x7e C:/Program Files/TeliumSDK/SDK 9.8.0/SDK/lib_gnu_434/dll_wifi.lib(wifi5.o)
 .debug_abbrev  0x00001fe6       0x7e C:/Program Files/TeliumSDK/SDK 9.8.0/SDK/lib_gnu_434/dll_wifi.lib(wifi6.o)
 .debug_abbrev  0x00002064       0x83 C:/Program Files/TeliumSDK/SDK 9.8.0/SDK/lib_gnu_434/dll_wifi.lib(wifi7.o)
 .debug_abbrev  0x000020e7       0x83 C:/Program Files/TeliumSDK/SDK 9.8.0/SDK/lib_gnu_434/dll_wifi.lib(wifi8.o)
 .debug_abbrev  0x0000216a       0x83 C:/Program Files/TeliumSDK/SDK 9.8.0/SDK/lib_gnu_434/dll_wifi.lib(wifi9.o)
 .debug_abbrev  0x000021ed       0x83 C:/Program Files/TeliumSDK/SDK 9.8.0/SDK/lib_gnu_434/dll_wifi.lib(wifi10.o)
 .debug_abbrev  0x00002270       0x83 C:/Program Files/TeliumSDK/SDK 9.8.0/SDK/lib_gnu_434/dll_wifi.lib(wifi11.o)
 .debug_abbrev  0x000022f3       0x7e C:/Program Files/TeliumSDK/SDK 9.8.0/SDK/lib_gnu_434/dll_wifi.lib(wifi12.o)
 .debug_abbrev  0x00002371       0x7e C:/Program Files/TeliumSDK/SDK 9.8.0/SDK/lib_gnu_434/dll_wifi.lib(wifi13.o)
 .debug_abbrev  0x000023ef       0x7e C:/Program Files/TeliumSDK/SDK 9.8.0/SDK/lib_gnu_434/dll_wifi.lib(wifi14.o)
 .debug_abbrev  0x0000246d       0xa8 C:/Program Files/TeliumSDK/SDK 9.8.0/SDK/lib_gnu_434/dll_wifi.lib(wifi15.o)
 .debug_abbrev  0x00002515       0x8a C:/Program Files/TeliumSDK/SDK 9.8.0/SDK/lib_gnu_434/dll_wifi.lib(wifi16.o)
 .debug_abbrev  0x0000259f       0xa8 C:/Program Files/TeliumSDK/SDK 9.8.0/SDK/lib_gnu_434/dll_wifi.lib(wifi17.o)
 .debug_abbrev  0x00002647       0x8a C:/Program Files/TeliumSDK/SDK 9.8.0/SDK/lib_gnu_434/dll_wifi.lib(wifi18.o)
 .debug_abbrev  0x000026d1       0x7e C:/Program Files/TeliumSDK/SDK 9.8.0/SDK/lib_gnu_434/dll_wifi.lib(wifi19.o)
 .debug_abbrev  0x0000274f       0xda C:/Program Files/TeliumSDK/SDK 9.8.0/SDK/lib_gnu_434/dll_wifi.lib(wifi20.o)
 .debug_abbrev  0x00002829       0xda C:/Program Files/TeliumSDK/SDK 9.8.0/SDK/lib_gnu_434/dll_wifi.lib(wifi21.o)
 .debug_abbrev  0x00002903       0x7e C:/Program Files/TeliumSDK/SDK 9.8.0/SDK/lib_gnu_434/dll_wifi.lib(wifi22.o)
 .debug_abbrev  0x00002981       0x83 C:/Program Files/TeliumSDK/SDK 9.8.0/SDK/lib_gnu_434/dll_wifi.lib(wifi23.o)
 .debug_abbrev  0x00002a04       0xd1 C:/Program Files/TeliumSDK/SDK 9.8.0/SDK/lib_gnu_434/dll_wifi.lib(wifi24.o)
 .debug_abbrev  0x00002ad5       0x83 C:/Program Files/TeliumSDK/SDK 9.8.0/SDK/lib_gnu_434/dll_wifi.lib(wifi25.o)
 .debug_abbrev  0x00002b58       0x83 C:/Program Files/TeliumSDK/SDK 9.8.0/SDK/lib_gnu_434/dll_wifi.lib(wifi26.o)
 .debug_abbrev  0x00002bdb       0x83 C:/Program Files/TeliumSDK/SDK 9.8.0/SDK/lib_gnu_434/dll_wifi.lib(wifi27.o)
 .debug_abbrev  0x00002c5e       0x83 C:/Program Files/TeliumSDK/SDK 9.8.0/SDK/lib_gnu_434/dll_wifi.lib(wifi28.o)
 .debug_abbrev  0x00002ce1       0x83 C:/Program Files/TeliumSDK/SDK 9.8.0/SDK/lib_gnu_434/dll_wifi.lib(wifi29.o)
 .debug_abbrev  0x00002d64       0x83 C:/Program Files/TeliumSDK/SDK 9.8.0/SDK/lib_gnu_434/dll_wifi.lib(wifi30.o)
 .debug_abbrev  0x00002de7       0x83 C:/Program Files/TeliumSDK/SDK 9.8.0/SDK/lib_gnu_434/dll_wifi.lib(wifi31.o)
 .debug_abbrev  0x00002e6a       0x83 C:/Program Files/TeliumSDK/SDK 9.8.0/SDK/lib_gnu_434/dll_wifi.lib(wifi32.o)
 .debug_abbrev  0x00002eed       0x83 C:/Program Files/TeliumSDK/SDK 9.8.0/SDK/lib_gnu_434/dll_wifi.lib(wifi33.o)
 .debug_abbrev  0x00002f70       0x7e C:/Program Files/TeliumSDK/SDK 9.8.0/SDK/lib_gnu_434/dll_wifi.lib(wifi34.o)
 .debug_abbrev  0x00002fee       0x83 C:/Program Files/TeliumSDK/SDK 9.8.0/SDK/lib_gnu_434/dll_wifi.lib(wifi35.o)
 .debug_abbrev  0x00003071       0x92 C:/Program Files/Ingenico/IngeDev_7/plugins/com.ingenico.ingedev.telium.bin.win32.gnuarm.v434_7.16.0.6/os/win32/GNUARM/4.3.4/arm-elf/lib/thumb/soft/interwork/libc.a(lib_a-memcmp.o)
 .debug_abbrev  0x00003103       0xa6 C:/Program Files/Ingenico/IngeDev_7/plugins/com.ingenico.ingedev.telium.bin.win32.gnuarm.v434_7.16.0.6/os/win32/GNUARM/4.3.4/arm-elf/lib/thumb/soft/interwork/libc.a(lib_a-memcpy.o)
 .debug_abbrev  0x000031a9       0xa2 C:/Program Files/Ingenico/IngeDev_7/plugins/com.ingenico.ingedev.telium.bin.win32.gnuarm.v434_7.16.0.6/os/win32/GNUARM/4.3.4/arm-elf/lib/thumb/soft/interwork/libc.a(lib_a-memmove.o)
 .debug_abbrev  0x0000324b       0x85 C:/Program Files/Ingenico/IngeDev_7/plugins/com.ingenico.ingedev.telium.bin.win32.gnuarm.v434_7.16.0.6/os/win32/GNUARM/4.3.4/arm-elf/lib/thumb/soft/interwork/libc.a(lib_a-memset.o)
 .debug_abbrev  0x000032d0      0x1c1 C:/Program Files/Ingenico/IngeDev_7/plugins/com.ingenico.ingedev.telium.bin.win32.gnuarm.v434_7.16.0.6/os/win32/GNUARM/4.3.4/arm-elf/lib/thumb/soft/interwork/libc.a(lib_a-snprintf.o)
 .debug_abbrev  0x00003491       0x76 C:/Program Files/Ingenico/IngeDev_7/plugins/com.ingenico.ingedev.telium.bin.win32.gnuarm.v434_7.16.0.6/os/win32/GNUARM/4.3.4/arm-elf/lib/thumb/soft/interwork/libc.a(lib_a-strcat.o)
 .debug_abbrev  0x00003507       0x89 C:/Program Files/Ingenico/IngeDev_7/plugins/com.ingenico.ingedev.telium.bin.win32.gnuarm.v434_7.16.0.6/os/win32/GNUARM/4.3.4/arm-elf/lib/thumb/soft/interwork/libc.a(lib_a-strchr.o)
 .debug_abbrev  0x00003590       0x78 C:/Program Files/Ingenico/IngeDev_7/plugins/com.ingenico.ingedev.telium.bin.win32.gnuarm.v434_7.16.0.6/os/win32/GNUARM/4.3.4/arm-elf/lib/thumb/soft/interwork/libc.a(lib_a-strcmp.o)
 .debug_abbrev  0x00003608       0x78 C:/Program Files/Ingenico/IngeDev_7/plugins/com.ingenico.ingedev.telium.bin.win32.gnuarm.v434_7.16.0.6/os/win32/GNUARM/4.3.4/arm-elf/lib/thumb/soft/interwork/libc.a(lib_a-strcpy.o)
 .debug_abbrev  0x00003680       0x94 C:/Program Files/Ingenico/IngeDev_7/plugins/com.ingenico.ingedev.telium.bin.win32.gnuarm.v434_7.16.0.6/os/win32/GNUARM/4.3.4/arm-elf/lib/thumb/soft/interwork/libc.a(lib_a-strlen.o)
 .debug_abbrev  0x00003714       0x83 C:/Program Files/Ingenico/IngeDev_7/plugins/com.ingenico.ingedev.telium.bin.win32.gnuarm.v434_7.16.0.6/os/win32/GNUARM/4.3.4/arm-elf/lib/thumb/soft/interwork/libc.a(lib_a-strncat.o)
 .debug_abbrev  0x00003797       0x85 C:/Program Files/Ingenico/IngeDev_7/plugins/com.ingenico.ingedev.telium.bin.win32.gnuarm.v434_7.16.0.6/os/win32/GNUARM/4.3.4/arm-elf/lib/thumb/soft/interwork/libc.a(lib_a-strncpy.o)
 .debug_abbrev  0x0000381c       0x8e C:/Program Files/Ingenico/IngeDev_7/plugins/com.ingenico.ingedev.telium.bin.win32.gnuarm.v434_7.16.0.6/os/win32/GNUARM/4.3.4/arm-elf/lib/thumb/soft/interwork/libc.a(lib_a-strstr.o)
 .debug_abbrev  0x000038aa      0x188 C:/Program Files/Ingenico/IngeDev_7/plugins/com.ingenico.ingedev.telium.bin.win32.gnuarm.v434_7.16.0.6/os/win32/GNUARM/4.3.4/arm-elf/lib/thumb/soft/interwork/libc.a(lib_a-strtok.o)
 .debug_abbrev  0x00003a32       0xba C:/Program Files/Ingenico/IngeDev_7/plugins/com.ingenico.ingedev.telium.bin.win32.gnuarm.v434_7.16.0.6/os/win32/GNUARM/4.3.4/arm-elf/lib/thumb/soft/interwork/libc.a(lib_a-strtok_r.o)
 .debug_abbrev  0x00003aec      0x1c6 C:/Program Files/Ingenico/IngeDev_7/plugins/com.ingenico.ingedev.telium.bin.win32.gnuarm.v434_7.16.0.6/os/win32/GNUARM/4.3.4/arm-elf/lib/thumb/soft/interwork/libc.a(lib_a-strtoul.o)
 .debug_abbrev  0x00003cb2      0x2c9 C:/Program Files/Ingenico/IngeDev_7/plugins/com.ingenico.ingedev.telium.bin.win32.gnuarm.v434_7.16.0.6/os/win32/GNUARM/4.3.4/arm-elf/lib/thumb/soft/interwork/libc.a(lib_a-svfprintf.o)
 .debug_abbrev  0x00003f7b       0x5b C:/Program Files/Ingenico/IngeDev_7/plugins/com.ingenico.ingedev.telium.bin.win32.gnuarm.v434_7.16.0.6/os/win32/GNUARM/4.3.4/arm-elf/lib/thumb/soft/interwork/libc.a(lib_a-ctype_.o)
 .debug_abbrev  0x00003fd6      0x23b C:/Program Files/Ingenico/IngeDev_7/plugins/com.ingenico.ingedev.telium.bin.win32.gnuarm.v434_7.16.0.6/os/win32/GNUARM/4.3.4/arm-elf/lib/thumb/soft/interwork/libc.a(lib_a-dtoa.o)
 .debug_abbrev  0x00004211      0x160 C:/Program Files/Ingenico/IngeDev_7/plugins/com.ingenico.ingedev.telium.bin.win32.gnuarm.v434_7.16.0.6/os/win32/GNUARM/4.3.4/arm-elf/lib/thumb/soft/interwork/libc.a(lib_a-impure.o)
 .debug_abbrev  0x00004371      0x220 C:/Program Files/Ingenico/IngeDev_7/plugins/com.ingenico.ingedev.telium.bin.win32.gnuarm.v434_7.16.0.6/os/win32/GNUARM/4.3.4/arm-elf/lib/thumb/soft/interwork/libc.a(lib_a-locale.o)
 .debug_abbrev  0x00004591       0xc0 C:/Program Files/Ingenico/IngeDev_7/plugins/com.ingenico.ingedev.telium.bin.win32.gnuarm.v434_7.16.0.6/os/win32/GNUARM/4.3.4/arm-elf/lib/thumb/soft/interwork/libc.a(lib_a-memchr.o)
 .debug_abbrev  0x00004651      0x337 C:/Program Files/Ingenico/IngeDev_7/plugins/com.ingenico.ingedev.telium.bin.win32.gnuarm.v434_7.16.0.6/os/win32/GNUARM/4.3.4/arm-elf/lib/thumb/soft/interwork/libc.a(lib_a-mprec.o)
 .debug_abbrev  0x00004988       0xce C:/Program Files/Ingenico/IngeDev_7/plugins/com.ingenico.ingedev.telium.bin.win32.gnuarm.v434_7.16.0.6/os/win32/GNUARM/4.3.4/arm-elf/lib/thumb/soft/interwork/libc.a(lib_a-s_fpclassify.o)
 .debug_abbrev  0x00004a56      0x27d C:/Program Files/Ingenico/IngeDev_7/plugins/com.ingenico.ingedev.telium.bin.win32.gnuarm.v434_7.16.0.6/os/win32/GNUARM/4.3.4/arm-elf/lib/thumb/soft/interwork/libc.a(lib_a-svfiprintf.o)
 .debug_abbrev  0x00004cd3       0x14 C:/Program Files/Ingenico/IngeDev_7/plugins/com.ingenico.ingedev.telium.bin.win32.gnuarm.v434_7.16.0.6/os/win32/GNUARM/4.3.4/lib/gcc/arm-elf/4.3.4/thumb/soft/interwork/libgcc.a(_udivsi3.o)
 .debug_abbrev  0x00004ce7       0x14 C:/Program Files/Ingenico/IngeDev_7/plugins/com.ingenico.ingedev.telium.bin.win32.gnuarm.v434_7.16.0.6/os/win32/GNUARM/4.3.4/lib/gcc/arm-elf/4.3.4/thumb/soft/interwork/libgcc.a(_divsi3.o)
 .debug_abbrev  0x00004cfb       0x14 C:/Program Files/Ingenico/IngeDev_7/plugins/com.ingenico.ingedev.telium.bin.win32.gnuarm.v434_7.16.0.6/os/win32/GNUARM/4.3.4/lib/gcc/arm-elf/4.3.4/thumb/soft/interwork/libgcc.a(_umodsi3.o)
 .debug_abbrev  0x00004d0f       0x14 C:/Program Files/Ingenico/IngeDev_7/plugins/com.ingenico.ingedev.telium.bin.win32.gnuarm.v434_7.16.0.6/os/win32/GNUARM/4.3.4/lib/gcc/arm-elf/4.3.4/thumb/soft/interwork/libgcc.a(_modsi3.o)
 .debug_abbrev  0x00004d23       0x14 C:/Program Files/Ingenico/IngeDev_7/plugins/com.ingenico.ingedev.telium.bin.win32.gnuarm.v434_7.16.0.6/os/win32/GNUARM/4.3.4/lib/gcc/arm-elf/4.3.4/thumb/soft/interwork/libgcc.a(_dvmd_tls.o)
 .debug_abbrev  0x00004d37       0x14 C:/Program Files/Ingenico/IngeDev_7/plugins/com.ingenico.ingedev.telium.bin.win32.gnuarm.v434_7.16.0.6/os/win32/GNUARM/4.3.4/lib/gcc/arm-elf/4.3.4/thumb/soft/interwork/libgcc.a(_addsubdf3.o)
 .debug_abbrev  0x00004d4b       0x14 C:/Program Files/Ingenico/IngeDev_7/plugins/com.ingenico.ingedev.telium.bin.win32.gnuarm.v434_7.16.0.6/os/win32/GNUARM/4.3.4/lib/gcc/arm-elf/4.3.4/thumb/soft/interwork/libgcc.a(_muldivdf3.o)
 .debug_abbrev  0x00004d5f       0x14 C:/Program Files/Ingenico/IngeDev_7/plugins/com.ingenico.ingedev.telium.bin.win32.gnuarm.v434_7.16.0.6/os/win32/GNUARM/4.3.4/lib/gcc/arm-elf/4.3.4/thumb/soft/interwork/libgcc.a(_cmpdf2.o)
 .debug_abbrev  0x00004d73       0x14 C:/Program Files/Ingenico/IngeDev_7/plugins/com.ingenico.ingedev.telium.bin.win32.gnuarm.v434_7.16.0.6/os/win32/GNUARM/4.3.4/lib/gcc/arm-elf/4.3.4/thumb/soft/interwork/libgcc.a(_fixdfsi.o)

.debug_info     0x00000000    0x174c5
 .debug_info    0x00000000      0x4be Obj/GNU_ARM_DEBUG/Backlight.o
 .debug_info    0x000004be     0x1188 Obj/GNU_ARM_DEBUG/Boleto.o
 .debug_info    0x00001646      0x77b Obj/GNU_ARM_DEBUG/Conn.o
 .debug_info    0x00001dc1      0xf4b Obj/GNU_ARM_DEBUG/Dialogs.o
 .debug_info    0x00002d0c     0x19e2 Obj/GNU_ARM_DEBUG/Entry.o
 .debug_info    0x000046ee      0x685 Obj/GNU_ARM_DEBUG/File.o
 .debug_info    0x00004d73      0x655 Obj/GNU_ARM_DEBUG/FTP.o
 .debug_info    0x000053c8      0x6db Obj/GNU_ARM_DEBUG/GPRS.o
 .debug_info    0x00005aa3      0x714 Obj/GNU_ARM_DEBUG/HTTP.o
 .debug_info    0x000061b7      0x5e1 Obj/GNU_ARM_DEBUG/Inicio.o
 .debug_info    0x00006798     0x250a Obj/GNU_ARM_DEBUG/Main.o
 .debug_info    0x00008ca2     0x1796 Obj/GNU_ARM_DEBUG/Menus.o
 .debug_info    0x0000a438      0x2c7 Obj/GNU_ARM_DEBUG/NTP.o
 .debug_info    0x0000a6ff      0x675 Obj/GNU_ARM_DEBUG/Sistema.o
 .debug_info    0x0000ad74      0xc4c Obj/GNU_ARM_DEBUG/Recarga.o
 .debug_info    0x0000b9c0      0xcb8 C:/Program Files/TeliumSDK/SDK 9.8.0/SDK/lib_gnu_434/libcpatch.o
 .debug_info    0x0000c678      0x5d1 C:/Program Files/TeliumSDK/SDK 9.8.0/SDK/lib_gnu_434/dll_wifi.lib(wifi.o)
 .debug_info    0x0000cc49       0xf3 C:/Program Files/TeliumSDK/SDK 9.8.0/SDK/lib_gnu_434/dll_wifi.lib(wifi1.o)
 .debug_info    0x0000cd3c       0xc1 C:/Program Files/TeliumSDK/SDK 9.8.0/SDK/lib_gnu_434/dll_wifi.lib(wifi2.o)
 .debug_info    0x0000cdfd       0xc9 C:/Program Files/TeliumSDK/SDK 9.8.0/SDK/lib_gnu_434/dll_wifi.lib(wifi3.o)
 .debug_info    0x0000cec6       0xcf C:/Program Files/TeliumSDK/SDK 9.8.0/SDK/lib_gnu_434/dll_wifi.lib(wifi4.o)
 .debug_info    0x0000cf95       0xc1 C:/Program Files/TeliumSDK/SDK 9.8.0/SDK/lib_gnu_434/dll_wifi.lib(wifi5.o)
 .debug_info    0x0000d056       0xc1 C:/Program Files/TeliumSDK/SDK 9.8.0/SDK/lib_gnu_434/dll_wifi.lib(wifi6.o)
 .debug_info    0x0000d117       0xc9 C:/Program Files/TeliumSDK/SDK 9.8.0/SDK/lib_gnu_434/dll_wifi.lib(wifi7.o)
 .debug_info    0x0000d1e0       0xc9 C:/Program Files/TeliumSDK/SDK 9.8.0/SDK/lib_gnu_434/dll_wifi.lib(wifi8.o)
 .debug_info    0x0000d2a9       0xc9 C:/Program Files/TeliumSDK/SDK 9.8.0/SDK/lib_gnu_434/dll_wifi.lib(wifi9.o)
 .debug_info    0x0000d372       0xc9 C:/Program Files/TeliumSDK/SDK 9.8.0/SDK/lib_gnu_434/dll_wifi.lib(wifi10.o)
 .debug_info    0x0000d43b       0xc9 C:/Program Files/TeliumSDK/SDK 9.8.0/SDK/lib_gnu_434/dll_wifi.lib(wifi11.o)
 .debug_info    0x0000d504       0xc1 C:/Program Files/TeliumSDK/SDK 9.8.0/SDK/lib_gnu_434/dll_wifi.lib(wifi12.o)
 .debug_info    0x0000d5c5       0xc1 C:/Program Files/TeliumSDK/SDK 9.8.0/SDK/lib_gnu_434/dll_wifi.lib(wifi13.o)
 .debug_info    0x0000d686       0xc1 C:/Program Files/TeliumSDK/SDK 9.8.0/SDK/lib_gnu_434/dll_wifi.lib(wifi14.o)
 .debug_info    0x0000d747      0x153 C:/Program Files/TeliumSDK/SDK 9.8.0/SDK/lib_gnu_434/dll_wifi.lib(wifi15.o)
 .debug_info    0x0000d89a       0xce C:/Program Files/TeliumSDK/SDK 9.8.0/SDK/lib_gnu_434/dll_wifi.lib(wifi16.o)
 .debug_info    0x0000d968      0x153 C:/Program Files/TeliumSDK/SDK 9.8.0/SDK/lib_gnu_434/dll_wifi.lib(wifi17.o)
 .debug_info    0x0000dabb       0xce C:/Program Files/TeliumSDK/SDK 9.8.0/SDK/lib_gnu_434/dll_wifi.lib(wifi18.o)
 .debug_info    0x0000db89       0xc1 C:/Program Files/TeliumSDK/SDK 9.8.0/SDK/lib_gnu_434/dll_wifi.lib(wifi19.o)
 .debug_info    0x0000dc4a      0x1a1 C:/Program Files/TeliumSDK/SDK 9.8.0/SDK/lib_gnu_434/dll_wifi.lib(wifi20.o)
 .debug_info    0x0000ddeb      0x1a1 C:/Program Files/TeliumSDK/SDK 9.8.0/SDK/lib_gnu_434/dll_wifi.lib(wifi21.o)
 .debug_info    0x0000df8c       0xc1 C:/Program Files/TeliumSDK/SDK 9.8.0/SDK/lib_gnu_434/dll_wifi.lib(wifi22.o)
 .debug_info    0x0000e04d       0xc3 C:/Program Files/TeliumSDK/SDK 9.8.0/SDK/lib_gnu_434/dll_wifi.lib(wifi23.o)
 .debug_info    0x0000e110      0x225 C:/Program Files/TeliumSDK/SDK 9.8.0/SDK/lib_gnu_434/dll_wifi.lib(wifi24.o)
 .debug_info    0x0000e335       0xc9 C:/Program Files/TeliumSDK/SDK 9.8.0/SDK/lib_gnu_434/dll_wifi.lib(wifi25.o)
 .debug_info    0x0000e3fe       0xc9 C:/Program Files/TeliumSDK/SDK 9.8.0/SDK/lib_gnu_434/dll_wifi.lib(wifi26.o)
 .debug_info    0x0000e4c7       0xc9 C:/Program Files/TeliumSDK/SDK 9.8.0/SDK/lib_gnu_434/dll_wifi.lib(wifi27.o)
 .debug_info    0x0000e590       0xc9 C:/Program Files/TeliumSDK/SDK 9.8.0/SDK/lib_gnu_434/dll_wifi.lib(wifi28.o)
 .debug_info    0x0000e659       0xc3 C:/Program Files/TeliumSDK/SDK 9.8.0/SDK/lib_gnu_434/dll_wifi.lib(wifi29.o)
 .debug_info    0x0000e71c       0xc3 C:/Program Files/TeliumSDK/SDK 9.8.0/SDK/lib_gnu_434/dll_wifi.lib(wifi30.o)
 .debug_info    0x0000e7df       0xc3 C:/Program Files/TeliumSDK/SDK 9.8.0/SDK/lib_gnu_434/dll_wifi.lib(wifi31.o)
 .debug_info    0x0000e8a2       0xc9 C:/Program Files/TeliumSDK/SDK 9.8.0/SDK/lib_gnu_434/dll_wifi.lib(wifi32.o)
 .debug_info    0x0000e96b       0xc9 C:/Program Files/TeliumSDK/SDK 9.8.0/SDK/lib_gnu_434/dll_wifi.lib(wifi33.o)
 .debug_info    0x0000ea34       0xc1 C:/Program Files/TeliumSDK/SDK 9.8.0/SDK/lib_gnu_434/dll_wifi.lib(wifi34.o)
 .debug_info    0x0000eaf5       0xc3 C:/Program Files/TeliumSDK/SDK 9.8.0/SDK/lib_gnu_434/dll_wifi.lib(wifi35.o)
 .debug_info    0x0000ebb8       0xe7 C:/Program Files/Ingenico/IngeDev_7/plugins/com.ingenico.ingedev.telium.bin.win32.gnuarm.v434_7.16.0.6/os/win32/GNUARM/4.3.4/arm-elf/lib/thumb/soft/interwork/libc.a(lib_a-memcmp.o)
 .debug_info    0x0000ec9f       0xfa C:/Program Files/Ingenico/IngeDev_7/plugins/com.ingenico.ingedev.telium.bin.win32.gnuarm.v434_7.16.0.6/os/win32/GNUARM/4.3.4/arm-elf/lib/thumb/soft/interwork/libc.a(lib_a-memcpy.o)
 .debug_info    0x0000ed99      0x102 C:/Program Files/Ingenico/IngeDev_7/plugins/com.ingenico.ingedev.telium.bin.win32.gnuarm.v434_7.16.0.6/os/win32/GNUARM/4.3.4/arm-elf/lib/thumb/soft/interwork/libc.a(lib_a-memmove.o)
 .debug_info    0x0000ee9b       0xcd C:/Program Files/Ingenico/IngeDev_7/plugins/com.ingenico.ingedev.telium.bin.win32.gnuarm.v434_7.16.0.6/os/win32/GNUARM/4.3.4/arm-elf/lib/thumb/soft/interwork/libc.a(lib_a-memset.o)
 .debug_info    0x0000ef68      0xa6d C:/Program Files/Ingenico/IngeDev_7/plugins/com.ingenico.ingedev.telium.bin.win32.gnuarm.v434_7.16.0.6/os/win32/GNUARM/4.3.4/arm-elf/lib/thumb/soft/interwork/libc.a(lib_a-snprintf.o)
 .debug_info    0x0000f9d5       0xc6 C:/Program Files/Ingenico/IngeDev_7/plugins/com.ingenico.ingedev.telium.bin.win32.gnuarm.v434_7.16.0.6/os/win32/GNUARM/4.3.4/arm-elf/lib/thumb/soft/interwork/libc.a(lib_a-strcat.o)
 .debug_info    0x0000fa9b       0xe1 C:/Program Files/Ingenico/IngeDev_7/plugins/com.ingenico.ingedev.telium.bin.win32.gnuarm.v434_7.16.0.6/os/win32/GNUARM/4.3.4/arm-elf/lib/thumb/soft/interwork/libc.a(lib_a-strchr.o)
 .debug_info    0x0000fb7c       0xb3 C:/Program Files/Ingenico/IngeDev_7/plugins/com.ingenico.ingedev.telium.bin.win32.gnuarm.v434_7.16.0.6/os/win32/GNUARM/4.3.4/arm-elf/lib/thumb/soft/interwork/libc.a(lib_a-strcmp.o)
 .debug_info    0x0000fc2f       0xbb C:/Program Files/Ingenico/IngeDev_7/plugins/com.ingenico.ingedev.telium.bin.win32.gnuarm.v434_7.16.0.6/os/win32/GNUARM/4.3.4/arm-elf/lib/thumb/soft/interwork/libc.a(lib_a-strcpy.o)
 .debug_info    0x0000fcea       0xcf C:/Program Files/Ingenico/IngeDev_7/plugins/com.ingenico.ingedev.telium.bin.win32.gnuarm.v434_7.16.0.6/os/win32/GNUARM/4.3.4/arm-elf/lib/thumb/soft/interwork/libc.a(lib_a-strlen.o)
 .debug_info    0x0000fdb9       0xde C:/Program Files/Ingenico/IngeDev_7/plugins/com.ingenico.ingedev.telium.bin.win32.gnuarm.v434_7.16.0.6/os/win32/GNUARM/4.3.4/arm-elf/lib/thumb/soft/interwork/libc.a(lib_a-strncat.o)
 .debug_info    0x0000fe97       0xf3 C:/Program Files/Ingenico/IngeDev_7/plugins/com.ingenico.ingedev.telium.bin.win32.gnuarm.v434_7.16.0.6/os/win32/GNUARM/4.3.4/arm-elf/lib/thumb/soft/interwork/libc.a(lib_a-strncpy.o)
 .debug_info    0x0000ff8a       0xdf C:/Program Files/Ingenico/IngeDev_7/plugins/com.ingenico.ingedev.telium.bin.win32.gnuarm.v434_7.16.0.6/os/win32/GNUARM/4.3.4/arm-elf/lib/thumb/soft/interwork/libc.a(lib_a-strstr.o)
 .debug_info    0x00010069      0x973 C:/Program Files/Ingenico/IngeDev_7/plugins/com.ingenico.ingedev.telium.bin.win32.gnuarm.v434_7.16.0.6/os/win32/GNUARM/4.3.4/arm-elf/lib/thumb/soft/interwork/libc.a(lib_a-strtok.o)
 .debug_info    0x000109dc      0x16a C:/Program Files/Ingenico/IngeDev_7/plugins/com.ingenico.ingedev.telium.bin.win32.gnuarm.v434_7.16.0.6/os/win32/GNUARM/4.3.4/arm-elf/lib/thumb/soft/interwork/libc.a(lib_a-strtok_r.o)
 .debug_info    0x00010b46      0xa52 C:/Program Files/Ingenico/IngeDev_7/plugins/com.ingenico.ingedev.telium.bin.win32.gnuarm.v434_7.16.0.6/os/win32/GNUARM/4.3.4/arm-elf/lib/thumb/soft/interwork/libc.a(lib_a-strtoul.o)
 .debug_info    0x00011598      0xf59 C:/Program Files/Ingenico/IngeDev_7/plugins/com.ingenico.ingedev.telium.bin.win32.gnuarm.v434_7.16.0.6/os/win32/GNUARM/4.3.4/arm-elf/lib/thumb/soft/interwork/libc.a(lib_a-svfprintf.o)
 .debug_info    0x000124f1       0x75 C:/Program Files/Ingenico/IngeDev_7/plugins/com.ingenico.ingedev.telium.bin.win32.gnuarm.v434_7.16.0.6/os/win32/GNUARM/4.3.4/arm-elf/lib/thumb/soft/interwork/libc.a(lib_a-ctype_.o)
 .debug_info    0x00012566      0xd93 C:/Program Files/Ingenico/IngeDev_7/plugins/com.ingenico.ingedev.telium.bin.win32.gnuarm.v434_7.16.0.6/os/win32/GNUARM/4.3.4/arm-elf/lib/thumb/soft/interwork/libc.a(lib_a-dtoa.o)
 .debug_info    0x000132f9      0x965 C:/Program Files/Ingenico/IngeDev_7/plugins/com.ingenico.ingedev.telium.bin.win32.gnuarm.v434_7.16.0.6/os/win32/GNUARM/4.3.4/arm-elf/lib/thumb/soft/interwork/libc.a(lib_a-impure.o)
 .debug_info    0x00013c5e      0xc67 C:/Program Files/Ingenico/IngeDev_7/plugins/com.ingenico.ingedev.telium.bin.win32.gnuarm.v434_7.16.0.6/os/win32/GNUARM/4.3.4/arm-elf/lib/thumb/soft/interwork/libc.a(lib_a-locale.o)
 .debug_info    0x000148c5       0xf4 C:/Program Files/Ingenico/IngeDev_7/plugins/com.ingenico.ingedev.telium.bin.win32.gnuarm.v434_7.16.0.6/os/win32/GNUARM/4.3.4/arm-elf/lib/thumb/soft/interwork/libc.a(lib_a-memchr.o)
 .debug_info    0x000149b9     0x154a C:/Program Files/Ingenico/IngeDev_7/plugins/com.ingenico.ingedev.telium.bin.win32.gnuarm.v434_7.16.0.6/os/win32/GNUARM/4.3.4/arm-elf/lib/thumb/soft/interwork/libc.a(lib_a-mprec.o)
 .debug_info    0x00015f03      0x146 C:/Program Files/Ingenico/IngeDev_7/plugins/com.ingenico.ingedev.telium.bin.win32.gnuarm.v434_7.16.0.6/os/win32/GNUARM/4.3.4/arm-elf/lib/thumb/soft/interwork/libc.a(lib_a-s_fpclassify.o)
 .debug_info    0x00016049      0xd5d C:/Program Files/Ingenico/IngeDev_7/plugins/com.ingenico.ingedev.telium.bin.win32.gnuarm.v434_7.16.0.6/os/win32/GNUARM/4.3.4/arm-elf/lib/thumb/soft/interwork/libc.a(lib_a-svfiprintf.o)
 .debug_info    0x00016da6       0xcb C:/Program Files/Ingenico/IngeDev_7/plugins/com.ingenico.ingedev.telium.bin.win32.gnuarm.v434_7.16.0.6/os/win32/GNUARM/4.3.4/lib/gcc/arm-elf/4.3.4/thumb/soft/interwork/libgcc.a(_udivsi3.o)
 .debug_info    0x00016e71       0xcb C:/Program Files/Ingenico/IngeDev_7/plugins/com.ingenico.ingedev.telium.bin.win32.gnuarm.v434_7.16.0.6/os/win32/GNUARM/4.3.4/lib/gcc/arm-elf/4.3.4/thumb/soft/interwork/libgcc.a(_divsi3.o)
 .debug_info    0x00016f3c       0xcb C:/Program Files/Ingenico/IngeDev_7/plugins/com.ingenico.ingedev.telium.bin.win32.gnuarm.v434_7.16.0.6/os/win32/GNUARM/4.3.4/lib/gcc/arm-elf/4.3.4/thumb/soft/interwork/libgcc.a(_umodsi3.o)
 .debug_info    0x00017007       0xcb C:/Program Files/Ingenico/IngeDev_7/plugins/com.ingenico.ingedev.telium.bin.win32.gnuarm.v434_7.16.0.6/os/win32/GNUARM/4.3.4/lib/gcc/arm-elf/4.3.4/thumb/soft/interwork/libgcc.a(_modsi3.o)
 .debug_info    0x000170d2       0xcb C:/Program Files/Ingenico/IngeDev_7/plugins/com.ingenico.ingedev.telium.bin.win32.gnuarm.v434_7.16.0.6/os/win32/GNUARM/4.3.4/lib/gcc/arm-elf/4.3.4/thumb/soft/interwork/libgcc.a(_dvmd_tls.o)
 .debug_info    0x0001719d       0xca C:/Program Files/Ingenico/IngeDev_7/plugins/com.ingenico.ingedev.telium.bin.win32.gnuarm.v434_7.16.0.6/os/win32/GNUARM/4.3.4/lib/gcc/arm-elf/4.3.4/thumb/soft/interwork/libgcc.a(_addsubdf3.o)
 .debug_info    0x00017267       0xca C:/Program Files/Ingenico/IngeDev_7/plugins/com.ingenico.ingedev.telium.bin.win32.gnuarm.v434_7.16.0.6/os/win32/GNUARM/4.3.4/lib/gcc/arm-elf/4.3.4/thumb/soft/interwork/libgcc.a(_muldivdf3.o)
 .debug_info    0x00017331       0xca C:/Program Files/Ingenico/IngeDev_7/plugins/com.ingenico.ingedev.telium.bin.win32.gnuarm.v434_7.16.0.6/os/win32/GNUARM/4.3.4/lib/gcc/arm-elf/4.3.4/thumb/soft/interwork/libgcc.a(_cmpdf2.o)
 .debug_info    0x000173fb       0xca C:/Program Files/Ingenico/IngeDev_7/plugins/com.ingenico.ingedev.telium.bin.win32.gnuarm.v434_7.16.0.6/os/win32/GNUARM/4.3.4/lib/gcc/arm-elf/4.3.4/thumb/soft/interwork/libgcc.a(_fixdfsi.o)

.debug_line     0x00000000     0x52e4
 .debug_line    0x00000000       0xbd Obj/GNU_ARM_DEBUG/Backlight.o
 .debug_line    0x000000bd      0x2d4 Obj/GNU_ARM_DEBUG/Boleto.o
 .debug_line    0x00000391      0x16b Obj/GNU_ARM_DEBUG/Conn.o
 .debug_line    0x000004fc      0x38a Obj/GNU_ARM_DEBUG/Dialogs.o
 .debug_line    0x00000886      0x286 Obj/GNU_ARM_DEBUG/Entry.o
 .debug_line    0x00000b0c      0x1ef Obj/GNU_ARM_DEBUG/File.o
 .debug_line    0x00000cfb      0x137 Obj/GNU_ARM_DEBUG/FTP.o
 .debug_line    0x00000e32      0x13f Obj/GNU_ARM_DEBUG/GPRS.o
 .debug_line    0x00000f71      0x236 Obj/GNU_ARM_DEBUG/HTTP.o
 .debug_line    0x000011a7      0x153 Obj/GNU_ARM_DEBUG/Inicio.o
 .debug_line    0x000012fa       0xb1 Obj/GNU_ARM_DEBUG/Main.o
 .debug_line    0x000013ab      0x535 Obj/GNU_ARM_DEBUG/Menus.o
 .debug_line    0x000018e0       0xb0 Obj/GNU_ARM_DEBUG/NTP.o
 .debug_line    0x00001990      0x13b Obj/GNU_ARM_DEBUG/Sistema.o
 .debug_line    0x00001acb      0x1e3 Obj/GNU_ARM_DEBUG/Recarga.o
 .debug_line    0x00001cae      0x1b2 C:/Program Files/TeliumSDK/SDK 9.8.0/SDK/lib_gnu_434/libcpatch.o
 .debug_line    0x00001e60       0xdc C:/Program Files/TeliumSDK/SDK 9.8.0/SDK/lib_gnu_434/dll_wifi.lib(wifi.o)
 .debug_line    0x00001f3c       0x4c C:/Program Files/TeliumSDK/SDK 9.8.0/SDK/lib_gnu_434/dll_wifi.lib(wifi1.o)
 .debug_line    0x00001f88       0x46 C:/Program Files/TeliumSDK/SDK 9.8.0/SDK/lib_gnu_434/dll_wifi.lib(wifi2.o)
 .debug_line    0x00001fce       0x46 C:/Program Files/TeliumSDK/SDK 9.8.0/SDK/lib_gnu_434/dll_wifi.lib(wifi3.o)
 .debug_line    0x00002014       0x46 C:/Program Files/TeliumSDK/SDK 9.8.0/SDK/lib_gnu_434/dll_wifi.lib(wifi4.o)
 .debug_line    0x0000205a       0x46 C:/Program Files/TeliumSDK/SDK 9.8.0/SDK/lib_gnu_434/dll_wifi.lib(wifi5.o)
 .debug_line    0x000020a0       0x46 C:/Program Files/TeliumSDK/SDK 9.8.0/SDK/lib_gnu_434/dll_wifi.lib(wifi6.o)
 .debug_line    0x000020e6       0x46 C:/Program Files/TeliumSDK/SDK 9.8.0/SDK/lib_gnu_434/dll_wifi.lib(wifi7.o)
 .debug_line    0x0000212c       0x46 C:/Program Files/TeliumSDK/SDK 9.8.0/SDK/lib_gnu_434/dll_wifi.lib(wifi8.o)
 .debug_line    0x00002172       0x46 C:/Program Files/TeliumSDK/SDK 9.8.0/SDK/lib_gnu_434/dll_wifi.lib(wifi9.o)
 .debug_line    0x000021b8       0x47 C:/Program Files/TeliumSDK/SDK 9.8.0/SDK/lib_gnu_434/dll_wifi.lib(wifi10.o)
 .debug_line    0x000021ff       0x47 C:/Program Files/TeliumSDK/SDK 9.8.0/SDK/lib_gnu_434/dll_wifi.lib(wifi11.o)
 .debug_line    0x00002246       0x47 C:/Program Files/TeliumSDK/SDK 9.8.0/SDK/lib_gnu_434/dll_wifi.lib(wifi12.o)
 .debug_line    0x0000228d       0x47 C:/Program Files/TeliumSDK/SDK 9.8.0/SDK/lib_gnu_434/dll_wifi.lib(wifi13.o)
 .debug_line    0x000022d4       0x47 C:/Program Files/TeliumSDK/SDK 9.8.0/SDK/lib_gnu_434/dll_wifi.lib(wifi14.o)
 .debug_line    0x0000231b       0x49 C:/Program Files/TeliumSDK/SDK 9.8.0/SDK/lib_gnu_434/dll_wifi.lib(wifi15.o)
 .debug_line    0x00002364       0x47 C:/Program Files/TeliumSDK/SDK 9.8.0/SDK/lib_gnu_434/dll_wifi.lib(wifi16.o)
 .debug_line    0x000023ab       0x49 C:/Program Files/TeliumSDK/SDK 9.8.0/SDK/lib_gnu_434/dll_wifi.lib(wifi17.o)
 .debug_line    0x000023f4       0x47 C:/Program Files/TeliumSDK/SDK 9.8.0/SDK/lib_gnu_434/dll_wifi.lib(wifi18.o)
 .debug_line    0x0000243b       0x47 C:/Program Files/TeliumSDK/SDK 9.8.0/SDK/lib_gnu_434/dll_wifi.lib(wifi19.o)
 .debug_line    0x00002482       0x79 C:/Program Files/TeliumSDK/SDK 9.8.0/SDK/lib_gnu_434/dll_wifi.lib(wifi20.o)
 .debug_line    0x000024fb       0x79 C:/Program Files/TeliumSDK/SDK 9.8.0/SDK/lib_gnu_434/dll_wifi.lib(wifi21.o)
 .debug_line    0x00002574       0x47 C:/Program Files/TeliumSDK/SDK 9.8.0/SDK/lib_gnu_434/dll_wifi.lib(wifi22.o)
 .debug_line    0x000025bb       0x47 C:/Program Files/TeliumSDK/SDK 9.8.0/SDK/lib_gnu_434/dll_wifi.lib(wifi23.o)
 .debug_line    0x00002602       0x79 C:/Program Files/TeliumSDK/SDK 9.8.0/SDK/lib_gnu_434/dll_wifi.lib(wifi24.o)
 .debug_line    0x0000267b       0x47 C:/Program Files/TeliumSDK/SDK 9.8.0/SDK/lib_gnu_434/dll_wifi.lib(wifi25.o)
 .debug_line    0x000026c2       0x47 C:/Program Files/TeliumSDK/SDK 9.8.0/SDK/lib_gnu_434/dll_wifi.lib(wifi26.o)
 .debug_line    0x00002709       0x47 C:/Program Files/TeliumSDK/SDK 9.8.0/SDK/lib_gnu_434/dll_wifi.lib(wifi27.o)
 .debug_line    0x00002750       0x47 C:/Program Files/TeliumSDK/SDK 9.8.0/SDK/lib_gnu_434/dll_wifi.lib(wifi28.o)
 .debug_line    0x00002797       0x47 C:/Program Files/TeliumSDK/SDK 9.8.0/SDK/lib_gnu_434/dll_wifi.lib(wifi29.o)
 .debug_line    0x000027de       0x47 C:/Program Files/TeliumSDK/SDK 9.8.0/SDK/lib_gnu_434/dll_wifi.lib(wifi30.o)
 .debug_line    0x00002825       0x47 C:/Program Files/TeliumSDK/SDK 9.8.0/SDK/lib_gnu_434/dll_wifi.lib(wifi31.o)
 .debug_line    0x0000286c       0x47 C:/Program Files/TeliumSDK/SDK 9.8.0/SDK/lib_gnu_434/dll_wifi.lib(wifi32.o)
 .debug_line    0x000028b3       0x47 C:/Program Files/TeliumSDK/SDK 9.8.0/SDK/lib_gnu_434/dll_wifi.lib(wifi33.o)
 .debug_line    0x000028fa       0x47 C:/Program Files/TeliumSDK/SDK 9.8.0/SDK/lib_gnu_434/dll_wifi.lib(wifi34.o)
 .debug_line    0x00002941       0x47 C:/Program Files/TeliumSDK/SDK 9.8.0/SDK/lib_gnu_434/dll_wifi.lib(wifi35.o)
 .debug_line    0x00002988       0xd7 C:/Program Files/Ingenico/IngeDev_7/plugins/com.ingenico.ingedev.telium.bin.win32.gnuarm.v434_7.16.0.6/os/win32/GNUARM/4.3.4/arm-elf/lib/thumb/soft/interwork/libc.a(lib_a-memcmp.o)
 .debug_line    0x00002a5f       0xd8 C:/Program Files/Ingenico/IngeDev_7/plugins/com.ingenico.ingedev.telium.bin.win32.gnuarm.v434_7.16.0.6/os/win32/GNUARM/4.3.4/arm-elf/lib/thumb/soft/interwork/libc.a(lib_a-memcpy.o)
 .debug_line    0x00002b37       0xde C:/Program Files/Ingenico/IngeDev_7/plugins/com.ingenico.ingedev.telium.bin.win32.gnuarm.v434_7.16.0.6/os/win32/GNUARM/4.3.4/arm-elf/lib/thumb/soft/interwork/libc.a(lib_a-memmove.o)
 .debug_line    0x00002c15       0xd6 C:/Program Files/Ingenico/IngeDev_7/plugins/com.ingenico.ingedev.telium.bin.win32.gnuarm.v434_7.16.0.6/os/win32/GNUARM/4.3.4/arm-elf/lib/thumb/soft/interwork/libc.a(lib_a-memset.o)
 .debug_line    0x00002ceb      0x1d3 C:/Program Files/Ingenico/IngeDev_7/plugins/com.ingenico.ingedev.telium.bin.win32.gnuarm.v434_7.16.0.6/os/win32/GNUARM/4.3.4/arm-elf/lib/thumb/soft/interwork/libc.a(lib_a-snprintf.o)
 .debug_line    0x00002ebe       0x80 C:/Program Files/Ingenico/IngeDev_7/plugins/com.ingenico.ingedev.telium.bin.win32.gnuarm.v434_7.16.0.6/os/win32/GNUARM/4.3.4/arm-elf/lib/thumb/soft/interwork/libc.a(lib_a-strcat.o)
 .debug_line    0x00002f3e       0x7f C:/Program Files/Ingenico/IngeDev_7/plugins/com.ingenico.ingedev.telium.bin.win32.gnuarm.v434_7.16.0.6/os/win32/GNUARM/4.3.4/arm-elf/lib/thumb/soft/interwork/libc.a(lib_a-strchr.o)
 .debug_line    0x00002fbd       0x81 C:/Program Files/Ingenico/IngeDev_7/plugins/com.ingenico.ingedev.telium.bin.win32.gnuarm.v434_7.16.0.6/os/win32/GNUARM/4.3.4/arm-elf/lib/thumb/soft/interwork/libc.a(lib_a-strcmp.o)
 .debug_line    0x0000303e       0x81 C:/Program Files/Ingenico/IngeDev_7/plugins/com.ingenico.ingedev.telium.bin.win32.gnuarm.v434_7.16.0.6/os/win32/GNUARM/4.3.4/arm-elf/lib/thumb/soft/interwork/libc.a(lib_a-strcpy.o)
 .debug_line    0x000030bf       0xdc C:/Program Files/Ingenico/IngeDev_7/plugins/com.ingenico.ingedev.telium.bin.win32.gnuarm.v434_7.16.0.6/os/win32/GNUARM/4.3.4/arm-elf/lib/thumb/soft/interwork/libc.a(lib_a-strlen.o)
 .debug_line    0x0000319b       0xdc C:/Program Files/Ingenico/IngeDev_7/plugins/com.ingenico.ingedev.telium.bin.win32.gnuarm.v434_7.16.0.6/os/win32/GNUARM/4.3.4/arm-elf/lib/thumb/soft/interwork/libc.a(lib_a-strncat.o)
 .debug_line    0x00003277       0xde C:/Program Files/Ingenico/IngeDev_7/plugins/com.ingenico.ingedev.telium.bin.win32.gnuarm.v434_7.16.0.6/os/win32/GNUARM/4.3.4/arm-elf/lib/thumb/soft/interwork/libc.a(lib_a-strncpy.o)
 .debug_line    0x00003355       0xe1 C:/Program Files/Ingenico/IngeDev_7/plugins/com.ingenico.ingedev.telium.bin.win32.gnuarm.v434_7.16.0.6/os/win32/GNUARM/4.3.4/arm-elf/lib/thumb/soft/interwork/libc.a(lib_a-strstr.o)
 .debug_line    0x00003436      0x147 C:/Program Files/Ingenico/IngeDev_7/plugins/com.ingenico.ingedev.telium.bin.win32.gnuarm.v434_7.16.0.6/os/win32/GNUARM/4.3.4/arm-elf/lib/thumb/soft/interwork/libc.a(lib_a-strtok.o)
 .debug_line    0x0000357d       0x96 C:/Program Files/Ingenico/IngeDev_7/plugins/com.ingenico.ingedev.telium.bin.win32.gnuarm.v434_7.16.0.6/os/win32/GNUARM/4.3.4/arm-elf/lib/thumb/soft/interwork/libc.a(lib_a-strtok_r.o)
 .debug_line    0x00003613      0x1d6 C:/Program Files/Ingenico/IngeDev_7/plugins/com.ingenico.ingedev.telium.bin.win32.gnuarm.v434_7.16.0.6/os/win32/GNUARM/4.3.4/arm-elf/lib/thumb/soft/interwork/libc.a(lib_a-strtoul.o)
 .debug_line    0x000037e9      0x3bb C:/Program Files/Ingenico/IngeDev_7/plugins/com.ingenico.ingedev.telium.bin.win32.gnuarm.v434_7.16.0.6/os/win32/GNUARM/4.3.4/arm-elf/lib/thumb/soft/interwork/libc.a(lib_a-svfprintf.o)
 .debug_line    0x00003ba4       0x68 C:/Program Files/Ingenico/IngeDev_7/plugins/com.ingenico.ingedev.telium.bin.win32.gnuarm.v434_7.16.0.6/os/win32/GNUARM/4.3.4/arm-elf/lib/thumb/soft/interwork/libc.a(lib_a-ctype_.o)
 .debug_line    0x00003c0c      0x3e6 C:/Program Files/Ingenico/IngeDev_7/plugins/com.ingenico.ingedev.telium.bin.win32.gnuarm.v434_7.16.0.6/os/win32/GNUARM/4.3.4/arm-elf/lib/thumb/soft/interwork/libc.a(lib_a-dtoa.o)
 .debug_line    0x00003ff2      0x132 C:/Program Files/Ingenico/IngeDev_7/plugins/com.ingenico.ingedev.telium.bin.win32.gnuarm.v434_7.16.0.6/os/win32/GNUARM/4.3.4/arm-elf/lib/thumb/soft/interwork/libc.a(lib_a-impure.o)
 .debug_line    0x00004124      0x1bf C:/Program Files/Ingenico/IngeDev_7/plugins/com.ingenico.ingedev.telium.bin.win32.gnuarm.v434_7.16.0.6/os/win32/GNUARM/4.3.4/arm-elf/lib/thumb/soft/interwork/libc.a(lib_a-locale.o)
 .debug_line    0x000042e3       0xda C:/Program Files/Ingenico/IngeDev_7/plugins/com.ingenico.ingedev.telium.bin.win32.gnuarm.v434_7.16.0.6/os/win32/GNUARM/4.3.4/arm-elf/lib/thumb/soft/interwork/libc.a(lib_a-memchr.o)
 .debug_line    0x000043bd      0x40f C:/Program Files/Ingenico/IngeDev_7/plugins/com.ingenico.ingedev.telium.bin.win32.gnuarm.v434_7.16.0.6/os/win32/GNUARM/4.3.4/arm-elf/lib/thumb/soft/interwork/libc.a(lib_a-mprec.o)
 .debug_line    0x000047cc       0xfb C:/Program Files/Ingenico/IngeDev_7/plugins/com.ingenico.ingedev.telium.bin.win32.gnuarm.v434_7.16.0.6/os/win32/GNUARM/4.3.4/arm-elf/lib/thumb/soft/interwork/libc.a(lib_a-s_fpclassify.o)
 .debug_line    0x000048c7      0x2f2 C:/Program Files/Ingenico/IngeDev_7/plugins/com.ingenico.ingedev.telium.bin.win32.gnuarm.v434_7.16.0.6/os/win32/GNUARM/4.3.4/arm-elf/lib/thumb/soft/interwork/libc.a(lib_a-svfiprintf.o)
 .debug_line    0x00004bb9       0x90 C:/Program Files/Ingenico/IngeDev_7/plugins/com.ingenico.ingedev.telium.bin.win32.gnuarm.v434_7.16.0.6/os/win32/GNUARM/4.3.4/lib/gcc/arm-elf/4.3.4/thumb/soft/interwork/libgcc.a(_udivsi3.o)
 .debug_line    0x00004c49       0x9c C:/Program Files/Ingenico/IngeDev_7/plugins/com.ingenico.ingedev.telium.bin.win32.gnuarm.v434_7.16.0.6/os/win32/GNUARM/4.3.4/lib/gcc/arm-elf/4.3.4/thumb/soft/interwork/libgcc.a(_divsi3.o)
 .debug_line    0x00004ce5       0x88 C:/Program Files/Ingenico/IngeDev_7/plugins/com.ingenico.ingedev.telium.bin.win32.gnuarm.v434_7.16.0.6/os/win32/GNUARM/4.3.4/lib/gcc/arm-elf/4.3.4/thumb/soft/interwork/libgcc.a(_umodsi3.o)
 .debug_line    0x00004d6d       0x91 C:/Program Files/Ingenico/IngeDev_7/plugins/com.ingenico.ingedev.telium.bin.win32.gnuarm.v434_7.16.0.6/os/win32/GNUARM/4.3.4/lib/gcc/arm-elf/4.3.4/thumb/soft/interwork/libgcc.a(_modsi3.o)
 .debug_line    0x00004dfe       0x7a C:/Program Files/Ingenico/IngeDev_7/plugins/com.ingenico.ingedev.telium.bin.win32.gnuarm.v434_7.16.0.6/os/win32/GNUARM/4.3.4/lib/gcc/arm-elf/4.3.4/thumb/soft/interwork/libgcc.a(_dvmd_tls.o)
 .debug_line    0x00004e78      0x182 C:/Program Files/Ingenico/IngeDev_7/plugins/com.ingenico.ingedev.telium.bin.win32.gnuarm.v434_7.16.0.6/os/win32/GNUARM/4.3.4/lib/gcc/arm-elf/4.3.4/thumb/soft/interwork/libgcc.a(_addsubdf3.o)
 .debug_line    0x00004ffa      0x197 C:/Program Files/Ingenico/IngeDev_7/plugins/com.ingenico.ingedev.telium.bin.win32.gnuarm.v434_7.16.0.6/os/win32/GNUARM/4.3.4/lib/gcc/arm-elf/4.3.4/thumb/soft/interwork/libgcc.a(_muldivdf3.o)
 .debug_line    0x00005191       0xc4 C:/Program Files/Ingenico/IngeDev_7/plugins/com.ingenico.ingedev.telium.bin.win32.gnuarm.v434_7.16.0.6/os/win32/GNUARM/4.3.4/lib/gcc/arm-elf/4.3.4/thumb/soft/interwork/libgcc.a(_cmpdf2.o)
 .debug_line    0x00005255       0x8f C:/Program Files/Ingenico/IngeDev_7/plugins/com.ingenico.ingedev.telium.bin.win32.gnuarm.v434_7.16.0.6/os/win32/GNUARM/4.3.4/lib/gcc/arm-elf/4.3.4/thumb/soft/interwork/libgcc.a(_fixdfsi.o)

.debug_frame    0x00000000     0x1d9c
 .debug_frame   0x00000000       0x30 Obj/GNU_ARM_DEBUG/Backlight.o
 .debug_frame   0x00000030       0xdc Obj/GNU_ARM_DEBUG/Boleto.o
 .debug_frame   0x0000010c       0xe0 Obj/GNU_ARM_DEBUG/Conn.o
 .debug_frame   0x000001ec      0x1d4 Obj/GNU_ARM_DEBUG/Dialogs.o
 .debug_frame   0x000003c0      0x2c4 Obj/GNU_ARM_DEBUG/Entry.o
 .debug_frame   0x00000684       0xa0 Obj/GNU_ARM_DEBUG/File.o
 .debug_frame   0x00000724      0x128 Obj/GNU_ARM_DEBUG/FTP.o
 .debug_frame   0x0000084c       0xc0 Obj/GNU_ARM_DEBUG/GPRS.o
 .debug_frame   0x0000090c       0xbc Obj/GNU_ARM_DEBUG/HTTP.o
 .debug_frame   0x000009c8       0xb0 Obj/GNU_ARM_DEBUG/Inicio.o
 .debug_frame   0x00000a78       0x2c Obj/GNU_ARM_DEBUG/Main.o
 .debug_frame   0x00000aa4      0x424 Obj/GNU_ARM_DEBUG/Menus.o
 .debug_frame   0x00000ec8       0x38 Obj/GNU_ARM_DEBUG/NTP.o
 .debug_frame   0x00000f00       0x88 Obj/GNU_ARM_DEBUG/Sistema.o
 .debug_frame   0x00000f88       0x9c Obj/GNU_ARM_DEBUG/Recarga.o
 .debug_frame   0x00001024       0x70 C:/Program Files/TeliumSDK/SDK 9.8.0/SDK/lib_gnu_434/libcpatch.o
 .debug_frame   0x00001094       0x44 C:/Program Files/TeliumSDK/SDK 9.8.0/SDK/lib_gnu_434/dll_wifi.lib(wifi.o)
 .debug_frame   0x000010d8       0x40 C:/Program Files/TeliumSDK/SDK 9.8.0/SDK/lib_gnu_434/dll_wifi.lib(wifi1.o)
 .debug_frame   0x00001118       0x28 C:/Program Files/TeliumSDK/SDK 9.8.0/SDK/lib_gnu_434/dll_wifi.lib(wifi2.o)
 .debug_frame   0x00001140       0x28 C:/Program Files/TeliumSDK/SDK 9.8.0/SDK/lib_gnu_434/dll_wifi.lib(wifi3.o)
 .debug_frame   0x00001168       0x28 C:/Program Files/TeliumSDK/SDK 9.8.0/SDK/lib_gnu_434/dll_wifi.lib(wifi4.o)
 .debug_frame   0x00001190       0x28 C:/Program Files/TeliumSDK/SDK 9.8.0/SDK/lib_gnu_434/dll_wifi.lib(wifi5.o)
 .debug_frame   0x000011b8       0x28 C:/Program Files/TeliumSDK/SDK 9.8.0/SDK/lib_gnu_434/dll_wifi.lib(wifi6.o)
 .debug_frame   0x000011e0       0x28 C:/Program Files/TeliumSDK/SDK 9.8.0/SDK/lib_gnu_434/dll_wifi.lib(wifi7.o)
 .debug_frame   0x00001208       0x28 C:/Program Files/TeliumSDK/SDK 9.8.0/SDK/lib_gnu_434/dll_wifi.lib(wifi8.o)
 .debug_frame   0x00001230       0x28 C:/Program Files/TeliumSDK/SDK 9.8.0/SDK/lib_gnu_434/dll_wifi.lib(wifi9.o)
 .debug_frame   0x00001258       0x28 C:/Program Files/TeliumSDK/SDK 9.8.0/SDK/lib_gnu_434/dll_wifi.lib(wifi10.o)
 .debug_frame   0x00001280       0x28 C:/Program Files/TeliumSDK/SDK 9.8.0/SDK/lib_gnu_434/dll_wifi.lib(wifi11.o)
 .debug_frame   0x000012a8       0x28 C:/Program Files/TeliumSDK/SDK 9.8.0/SDK/lib_gnu_434/dll_wifi.lib(wifi12.o)
 .debug_frame   0x000012d0       0x28 C:/Program Files/TeliumSDK/SDK 9.8.0/SDK/lib_gnu_434/dll_wifi.lib(wifi13.o)
 .debug_frame   0x000012f8       0x28 C:/Program Files/TeliumSDK/SDK 9.8.0/SDK/lib_gnu_434/dll_wifi.lib(wifi14.o)
 .debug_frame   0x00001320       0x2c C:/Program Files/TeliumSDK/SDK 9.8.0/SDK/lib_gnu_434/dll_wifi.lib(wifi15.o)
 .debug_frame   0x0000134c       0x28 C:/Program Files/TeliumSDK/SDK 9.8.0/SDK/lib_gnu_434/dll_wifi.lib(wifi16.o)
 .debug_frame   0x00001374       0x2c C:/Program Files/TeliumSDK/SDK 9.8.0/SDK/lib_gnu_434/dll_wifi.lib(wifi17.o)
 .debug_frame   0x000013a0       0x28 C:/Program Files/TeliumSDK/SDK 9.8.0/SDK/lib_gnu_434/dll_wifi.lib(wifi18.o)
 .debug_frame   0x000013c8       0x28 C:/Program Files/TeliumSDK/SDK 9.8.0/SDK/lib_gnu_434/dll_wifi.lib(wifi19.o)
 .debug_frame   0x000013f0       0x28 C:/Program Files/TeliumSDK/SDK 9.8.0/SDK/lib_gnu_434/dll_wifi.lib(wifi20.o)
 .debug_frame   0x00001418       0x28 C:/Program Files/TeliumSDK/SDK 9.8.0/SDK/lib_gnu_434/dll_wifi.lib(wifi21.o)
 .debug_frame   0x00001440       0x28 C:/Program Files/TeliumSDK/SDK 9.8.0/SDK/lib_gnu_434/dll_wifi.lib(wifi22.o)
 .debug_frame   0x00001468       0x28 C:/Program Files/TeliumSDK/SDK 9.8.0/SDK/lib_gnu_434/dll_wifi.lib(wifi23.o)
 .debug_frame   0x00001490       0x28 C:/Program Files/TeliumSDK/SDK 9.8.0/SDK/lib_gnu_434/dll_wifi.lib(wifi24.o)
 .debug_frame   0x000014b8       0x28 C:/Program Files/TeliumSDK/SDK 9.8.0/SDK/lib_gnu_434/dll_wifi.lib(wifi25.o)
 .debug_frame   0x000014e0       0x28 C:/Program Files/TeliumSDK/SDK 9.8.0/SDK/lib_gnu_434/dll_wifi.lib(wifi26.o)
 .debug_frame   0x00001508       0x28 C:/Program Files/TeliumSDK/SDK 9.8.0/SDK/lib_gnu_434/dll_wifi.lib(wifi27.o)
 .debug_frame   0x00001530       0x28 C:/Program Files/TeliumSDK/SDK 9.8.0/SDK/lib_gnu_434/dll_wifi.lib(wifi28.o)
 .debug_frame   0x00001558       0x28 C:/Program Files/TeliumSDK/SDK 9.8.0/SDK/lib_gnu_434/dll_wifi.lib(wifi29.o)
 .debug_frame   0x00001580       0x28 C:/Program Files/TeliumSDK/SDK 9.8.0/SDK/lib_gnu_434/dll_wifi.lib(wifi30.o)
 .debug_frame   0x000015a8       0x28 C:/Program Files/TeliumSDK/SDK 9.8.0/SDK/lib_gnu_434/dll_wifi.lib(wifi31.o)
 .debug_frame   0x000015d0       0x28 C:/Program Files/TeliumSDK/SDK 9.8.0/SDK/lib_gnu_434/dll_wifi.lib(wifi32.o)
 .debug_frame   0x000015f8       0x28 C:/Program Files/TeliumSDK/SDK 9.8.0/SDK/lib_gnu_434/dll_wifi.lib(wifi33.o)
 .debug_frame   0x00001620       0x28 C:/Program Files/TeliumSDK/SDK 9.8.0/SDK/lib_gnu_434/dll_wifi.lib(wifi34.o)
 .debug_frame   0x00001648       0x28 C:/Program Files/TeliumSDK/SDK 9.8.0/SDK/lib_gnu_434/dll_wifi.lib(wifi35.o)
 .debug_frame   0x00001670       0x2c C:/Program Files/Ingenico/IngeDev_7/plugins/com.ingenico.ingedev.telium.bin.win32.gnuarm.v434_7.16.0.6/os/win32/GNUARM/4.3.4/arm-elf/lib/thumb/soft/interwork/libc.a(lib_a-memcmp.o)
 .debug_frame   0x0000169c       0x28 C:/Program Files/Ingenico/IngeDev_7/plugins/com.ingenico.ingedev.telium.bin.win32.gnuarm.v434_7.16.0.6/os/win32/GNUARM/4.3.4/arm-elf/lib/thumb/soft/interwork/libc.a(lib_a-memcpy.o)
 .debug_frame   0x000016c4       0x2c C:/Program Files/Ingenico/IngeDev_7/plugins/com.ingenico.ingedev.telium.bin.win32.gnuarm.v434_7.16.0.6/os/win32/GNUARM/4.3.4/arm-elf/lib/thumb/soft/interwork/libc.a(lib_a-memmove.o)
 .debug_frame   0x000016f0       0x20 C:/Program Files/Ingenico/IngeDev_7/plugins/com.ingenico.ingedev.telium.bin.win32.gnuarm.v434_7.16.0.6/os/win32/GNUARM/4.3.4/arm-elf/lib/thumb/soft/interwork/libc.a(lib_a-memset.o)
 .debug_frame   0x00001710       0x50 C:/Program Files/Ingenico/IngeDev_7/plugins/com.ingenico.ingedev.telium.bin.win32.gnuarm.v434_7.16.0.6/os/win32/GNUARM/4.3.4/arm-elf/lib/thumb/soft/interwork/libc.a(lib_a-snprintf.o)
 .debug_frame   0x00001760       0x28 C:/Program Files/Ingenico/IngeDev_7/plugins/com.ingenico.ingedev.telium.bin.win32.gnuarm.v434_7.16.0.6/os/win32/GNUARM/4.3.4/arm-elf/lib/thumb/soft/interwork/libc.a(lib_a-strcat.o)
 .debug_frame   0x00001788       0x20 C:/Program Files/Ingenico/IngeDev_7/plugins/com.ingenico.ingedev.telium.bin.win32.gnuarm.v434_7.16.0.6/os/win32/GNUARM/4.3.4/arm-elf/lib/thumb/soft/interwork/libc.a(lib_a-strchr.o)
 .debug_frame   0x000017a8       0x20 C:/Program Files/Ingenico/IngeDev_7/plugins/com.ingenico.ingedev.telium.bin.win32.gnuarm.v434_7.16.0.6/os/win32/GNUARM/4.3.4/arm-elf/lib/thumb/soft/interwork/libc.a(lib_a-strcmp.o)
 .debug_frame   0x000017c8       0x20 C:/Program Files/Ingenico/IngeDev_7/plugins/com.ingenico.ingedev.telium.bin.win32.gnuarm.v434_7.16.0.6/os/win32/GNUARM/4.3.4/arm-elf/lib/thumb/soft/interwork/libc.a(lib_a-strcpy.o)
 .debug_frame   0x000017e8       0x20 C:/Program Files/Ingenico/IngeDev_7/plugins/com.ingenico.ingedev.telium.bin.win32.gnuarm.v434_7.16.0.6/os/win32/GNUARM/4.3.4/arm-elf/lib/thumb/soft/interwork/libc.a(lib_a-strlen.o)
 .debug_frame   0x00001808       0x28 C:/Program Files/Ingenico/IngeDev_7/plugins/com.ingenico.ingedev.telium.bin.win32.gnuarm.v434_7.16.0.6/os/win32/GNUARM/4.3.4/arm-elf/lib/thumb/soft/interwork/libc.a(lib_a-strncat.o)
 .debug_frame   0x00001830       0x28 C:/Program Files/Ingenico/IngeDev_7/plugins/com.ingenico.ingedev.telium.bin.win32.gnuarm.v434_7.16.0.6/os/win32/GNUARM/4.3.4/arm-elf/lib/thumb/soft/interwork/libc.a(lib_a-strncpy.o)
 .debug_frame   0x00001858       0x28 C:/Program Files/Ingenico/IngeDev_7/plugins/com.ingenico.ingedev.telium.bin.win32.gnuarm.v434_7.16.0.6/os/win32/GNUARM/4.3.4/arm-elf/lib/thumb/soft/interwork/libc.a(lib_a-strstr.o)
 .debug_frame   0x00001880       0x28 C:/Program Files/Ingenico/IngeDev_7/plugins/com.ingenico.ingedev.telium.bin.win32.gnuarm.v434_7.16.0.6/os/win32/GNUARM/4.3.4/arm-elf/lib/thumb/soft/interwork/libc.a(lib_a-strtok.o)
 .debug_frame   0x000018a8       0x48 C:/Program Files/Ingenico/IngeDev_7/plugins/com.ingenico.ingedev.telium.bin.win32.gnuarm.v434_7.16.0.6/os/win32/GNUARM/4.3.4/arm-elf/lib/thumb/soft/interwork/libc.a(lib_a-strtok_r.o)
 .debug_frame   0x000018f0       0x4c C:/Program Files/Ingenico/IngeDev_7/plugins/com.ingenico.ingedev.telium.bin.win32.gnuarm.v434_7.16.0.6/os/win32/GNUARM/4.3.4/arm-elf/lib/thumb/soft/interwork/libc.a(lib_a-strtoul.o)
 .debug_frame   0x0000193c       0x34 C:/Program Files/Ingenico/IngeDev_7/plugins/com.ingenico.ingedev.telium.bin.win32.gnuarm.v434_7.16.0.6/os/win32/GNUARM/4.3.4/arm-elf/lib/thumb/soft/interwork/libc.a(lib_a-svfprintf.o)
 .debug_frame   0x00001970       0x54 C:/Program Files/Ingenico/IngeDev_7/plugins/com.ingenico.ingedev.telium.bin.win32.gnuarm.v434_7.16.0.6/os/win32/GNUARM/4.3.4/arm-elf/lib/thumb/soft/interwork/libc.a(lib_a-dtoa.o)
 .debug_frame   0x000019c4       0x90 C:/Program Files/Ingenico/IngeDev_7/plugins/com.ingenico.ingedev.telium.bin.win32.gnuarm.v434_7.16.0.6/os/win32/GNUARM/4.3.4/arm-elf/lib/thumb/soft/interwork/libc.a(lib_a-locale.o)
 .debug_frame   0x00001a54       0x20 C:/Program Files/Ingenico/IngeDev_7/plugins/com.ingenico.ingedev.telium.bin.win32.gnuarm.v434_7.16.0.6/os/win32/GNUARM/4.3.4/arm-elf/lib/thumb/soft/interwork/libc.a(lib_a-memchr.o)
 .debug_frame   0x00001a74      0x20c C:/Program Files/Ingenico/IngeDev_7/plugins/com.ingenico.ingedev.telium.bin.win32.gnuarm.v434_7.16.0.6/os/win32/GNUARM/4.3.4/arm-elf/lib/thumb/soft/interwork/libc.a(lib_a-mprec.o)
 .debug_frame   0x00001c80       0x28 C:/Program Files/Ingenico/IngeDev_7/plugins/com.ingenico.ingedev.telium.bin.win32.gnuarm.v434_7.16.0.6/os/win32/GNUARM/4.3.4/arm-elf/lib/thumb/soft/interwork/libc.a(lib_a-s_fpclassify.o)
 .debug_frame   0x00001ca8       0x54 C:/Program Files/Ingenico/IngeDev_7/plugins/com.ingenico.ingedev.telium.bin.win32.gnuarm.v434_7.16.0.6/os/win32/GNUARM/4.3.4/arm-elf/lib/thumb/soft/interwork/libc.a(lib_a-svfiprintf.o)
 .debug_frame   0x00001cfc       0x28 C:/Program Files/Ingenico/IngeDev_7/plugins/com.ingenico.ingedev.telium.bin.win32.gnuarm.v434_7.16.0.6/os/win32/GNUARM/4.3.4/lib/gcc/arm-elf/4.3.4/thumb/soft/interwork/libgcc.a(_udivsi3.o)
 .debug_frame   0x00001d24       0x28 C:/Program Files/Ingenico/IngeDev_7/plugins/com.ingenico.ingedev.telium.bin.win32.gnuarm.v434_7.16.0.6/os/win32/GNUARM/4.3.4/lib/gcc/arm-elf/4.3.4/thumb/soft/interwork/libgcc.a(_divsi3.o)
 .debug_frame   0x00001d4c       0x28 C:/Program Files/Ingenico/IngeDev_7/plugins/com.ingenico.ingedev.telium.bin.win32.gnuarm.v434_7.16.0.6/os/win32/GNUARM/4.3.4/lib/gcc/arm-elf/4.3.4/thumb/soft/interwork/libgcc.a(_umodsi3.o)
 .debug_frame   0x00001d74       0x28 C:/Program Files/Ingenico/IngeDev_7/plugins/com.ingenico.ingedev.telium.bin.win32.gnuarm.v434_7.16.0.6/os/win32/GNUARM/4.3.4/lib/gcc/arm-elf/4.3.4/thumb/soft/interwork/libgcc.a(_modsi3.o)

.debug_loc      0x00000000     0xc941
 .debug_loc     0x00000000       0xa6 Obj/GNU_ARM_DEBUG/Backlight.o
 .debug_loc     0x000000a6      0x870 Obj/GNU_ARM_DEBUG/Boleto.o
 .debug_loc     0x00000916      0x4fc Obj/GNU_ARM_DEBUG/Conn.o
 .debug_loc     0x00000e12      0x985 Obj/GNU_ARM_DEBUG/Dialogs.o
 .debug_loc     0x00001797      0xbf8 Obj/GNU_ARM_DEBUG/Entry.o
 .debug_loc     0x0000238f      0x639 Obj/GNU_ARM_DEBUG/File.o
 .debug_loc     0x000029c8      0x701 Obj/GNU_ARM_DEBUG/FTP.o
 .debug_loc     0x000030c9      0x580 Obj/GNU_ARM_DEBUG/GPRS.o
 .debug_loc     0x00003649      0x5d0 Obj/GNU_ARM_DEBUG/HTTP.o
 .debug_loc     0x00003c19      0x2e6 Obj/GNU_ARM_DEBUG/Inicio.o
 .debug_loc     0x00003eff      0x18a Obj/GNU_ARM_DEBUG/Main.o
 .debug_loc     0x00004089     0x11f8 Obj/GNU_ARM_DEBUG/Menus.o
 .debug_loc     0x00005281       0x4c Obj/GNU_ARM_DEBUG/NTP.o
 .debug_loc     0x000052cd      0x2d8 Obj/GNU_ARM_DEBUG/Sistema.o
 .debug_loc     0x000055a5      0x657 Obj/GNU_ARM_DEBUG/Recarga.o
 .debug_loc     0x00005bfc       0x90 C:/Program Files/TeliumSDK/SDK 9.8.0/SDK/lib_gnu_434/dll_wifi.lib(wifi.o)
 .debug_loc     0x00005c8c       0x7a C:/Program Files/TeliumSDK/SDK 9.8.0/SDK/lib_gnu_434/dll_wifi.lib(wifi1.o)
 .debug_loc     0x00005d06       0x3d C:/Program Files/TeliumSDK/SDK 9.8.0/SDK/lib_gnu_434/dll_wifi.lib(wifi2.o)
 .debug_loc     0x00005d43       0x3d C:/Program Files/TeliumSDK/SDK 9.8.0/SDK/lib_gnu_434/dll_wifi.lib(wifi3.o)
 .debug_loc     0x00005d80       0x3d C:/Program Files/TeliumSDK/SDK 9.8.0/SDK/lib_gnu_434/dll_wifi.lib(wifi4.o)
 .debug_loc     0x00005dbd       0x3d C:/Program Files/TeliumSDK/SDK 9.8.0/SDK/lib_gnu_434/dll_wifi.lib(wifi5.o)
 .debug_loc     0x00005dfa       0x3d C:/Program Files/TeliumSDK/SDK 9.8.0/SDK/lib_gnu_434/dll_wifi.lib(wifi6.o)
 .debug_loc     0x00005e37       0x3d C:/Program Files/TeliumSDK/SDK 9.8.0/SDK/lib_gnu_434/dll_wifi.lib(wifi7.o)
 .debug_loc     0x00005e74       0x3d C:/Program Files/TeliumSDK/SDK 9.8.0/SDK/lib_gnu_434/dll_wifi.lib(wifi8.o)
 .debug_loc     0x00005eb1       0x3d C:/Program Files/TeliumSDK/SDK 9.8.0/SDK/lib_gnu_434/dll_wifi.lib(wifi9.o)
 .debug_loc     0x00005eee       0x3d C:/Program Files/TeliumSDK/SDK 9.8.0/SDK/lib_gnu_434/dll_wifi.lib(wifi10.o)
 .debug_loc     0x00005f2b       0x3d C:/Program Files/TeliumSDK/SDK 9.8.0/SDK/lib_gnu_434/dll_wifi.lib(wifi11.o)
 .debug_loc     0x00005f68       0x3d C:/Program Files/TeliumSDK/SDK 9.8.0/SDK/lib_gnu_434/dll_wifi.lib(wifi12.o)
 .debug_loc     0x00005fa5       0x3d C:/Program Files/TeliumSDK/SDK 9.8.0/SDK/lib_gnu_434/dll_wifi.lib(wifi13.o)
 .debug_loc     0x00005fe2       0x3d C:/Program Files/TeliumSDK/SDK 9.8.0/SDK/lib_gnu_434/dll_wifi.lib(wifi14.o)
 .debug_loc     0x0000601f       0xa3 C:/Program Files/TeliumSDK/SDK 9.8.0/SDK/lib_gnu_434/dll_wifi.lib(wifi15.o)
 .debug_loc     0x000060c2       0x3d C:/Program Files/TeliumSDK/SDK 9.8.0/SDK/lib_gnu_434/dll_wifi.lib(wifi16.o)
 .debug_loc     0x000060ff       0xa3 C:/Program Files/TeliumSDK/SDK 9.8.0/SDK/lib_gnu_434/dll_wifi.lib(wifi17.o)
 .debug_loc     0x000061a2       0x3d C:/Program Files/TeliumSDK/SDK 9.8.0/SDK/lib_gnu_434/dll_wifi.lib(wifi18.o)
 .debug_loc     0x000061df       0x3d C:/Program Files/TeliumSDK/SDK 9.8.0/SDK/lib_gnu_434/dll_wifi.lib(wifi19.o)
 .debug_loc     0x0000621c       0x3d C:/Program Files/TeliumSDK/SDK 9.8.0/SDK/lib_gnu_434/dll_wifi.lib(wifi20.o)
 .debug_loc     0x00006259       0x3d C:/Program Files/TeliumSDK/SDK 9.8.0/SDK/lib_gnu_434/dll_wifi.lib(wifi21.o)
 .debug_loc     0x00006296       0x3d C:/Program Files/TeliumSDK/SDK 9.8.0/SDK/lib_gnu_434/dll_wifi.lib(wifi22.o)
 .debug_loc     0x000062d3       0x3d C:/Program Files/TeliumSDK/SDK 9.8.0/SDK/lib_gnu_434/dll_wifi.lib(wifi23.o)
 .debug_loc     0x00006310       0x5b C:/Program Files/TeliumSDK/SDK 9.8.0/SDK/lib_gnu_434/dll_wifi.lib(wifi24.o)
 .debug_loc     0x0000636b       0x3d C:/Program Files/TeliumSDK/SDK 9.8.0/SDK/lib_gnu_434/dll_wifi.lib(wifi25.o)
 .debug_loc     0x000063a8       0x3d C:/Program Files/TeliumSDK/SDK 9.8.0/SDK/lib_gnu_434/dll_wifi.lib(wifi26.o)
 .debug_loc     0x000063e5       0x3d C:/Program Files/TeliumSDK/SDK 9.8.0/SDK/lib_gnu_434/dll_wifi.lib(wifi27.o)
 .debug_loc     0x00006422       0x3d C:/Program Files/TeliumSDK/SDK 9.8.0/SDK/lib_gnu_434/dll_wifi.lib(wifi28.o)
 .debug_loc     0x0000645f       0x3d C:/Program Files/TeliumSDK/SDK 9.8.0/SDK/lib_gnu_434/dll_wifi.lib(wifi29.o)
 .debug_loc     0x0000649c       0x3d C:/Program Files/TeliumSDK/SDK 9.8.0/SDK/lib_gnu_434/dll_wifi.lib(wifi30.o)
 .debug_loc     0x000064d9       0x3d C:/Program Files/TeliumSDK/SDK 9.8.0/SDK/lib_gnu_434/dll_wifi.lib(wifi31.o)
 .debug_loc     0x00006516       0x3d C:/Program Files/TeliumSDK/SDK 9.8.0/SDK/lib_gnu_434/dll_wifi.lib(wifi32.o)
 .debug_loc     0x00006553       0x3d C:/Program Files/TeliumSDK/SDK 9.8.0/SDK/lib_gnu_434/dll_wifi.lib(wifi33.o)
 .debug_loc     0x00006590       0x3d C:/Program Files/TeliumSDK/SDK 9.8.0/SDK/lib_gnu_434/dll_wifi.lib(wifi34.o)
 .debug_loc     0x000065cd       0x3d C:/Program Files/TeliumSDK/SDK 9.8.0/SDK/lib_gnu_434/dll_wifi.lib(wifi35.o)
 .debug_loc     0x0000660a       0x66 C:/Program Files/Ingenico/IngeDev_7/plugins/com.ingenico.ingedev.telium.bin.win32.gnuarm.v434_7.16.0.6/os/win32/GNUARM/4.3.4/arm-elf/lib/thumb/soft/interwork/libc.a(lib_a-memcmp.o)
 .debug_loc     0x00006670       0x5b C:/Program Files/Ingenico/IngeDev_7/plugins/com.ingenico.ingedev.telium.bin.win32.gnuarm.v434_7.16.0.6/os/win32/GNUARM/4.3.4/arm-elf/lib/thumb/soft/interwork/libc.a(lib_a-memcpy.o)
 .debug_loc     0x000066cb       0xa2 C:/Program Files/Ingenico/IngeDev_7/plugins/com.ingenico.ingedev.telium.bin.win32.gnuarm.v434_7.16.0.6/os/win32/GNUARM/4.3.4/arm-elf/lib/thumb/soft/interwork/libc.a(lib_a-memmove.o)
 .debug_loc     0x0000676d      0x1e4 C:/Program Files/Ingenico/IngeDev_7/plugins/com.ingenico.ingedev.telium.bin.win32.gnuarm.v434_7.16.0.6/os/win32/GNUARM/4.3.4/arm-elf/lib/thumb/soft/interwork/libc.a(lib_a-snprintf.o)
 .debug_loc     0x00006951       0x5b C:/Program Files/Ingenico/IngeDev_7/plugins/com.ingenico.ingedev.telium.bin.win32.gnuarm.v434_7.16.0.6/os/win32/GNUARM/4.3.4/arm-elf/lib/thumb/soft/interwork/libc.a(lib_a-strcat.o)
 .debug_loc     0x000069ac       0x5a C:/Program Files/Ingenico/IngeDev_7/plugins/com.ingenico.ingedev.telium.bin.win32.gnuarm.v434_7.16.0.6/os/win32/GNUARM/4.3.4/arm-elf/lib/thumb/soft/interwork/libc.a(lib_a-strchr.o)
 .debug_loc     0x00006a06       0x13 C:/Program Files/Ingenico/IngeDev_7/plugins/com.ingenico.ingedev.telium.bin.win32.gnuarm.v434_7.16.0.6/os/win32/GNUARM/4.3.4/arm-elf/lib/thumb/soft/interwork/libc.a(lib_a-strcmp.o)
 .debug_loc     0x00006a19       0x13 C:/Program Files/Ingenico/IngeDev_7/plugins/com.ingenico.ingedev.telium.bin.win32.gnuarm.v434_7.16.0.6/os/win32/GNUARM/4.3.4/arm-elf/lib/thumb/soft/interwork/libc.a(lib_a-strcpy.o)
 .debug_loc     0x00006a2c       0x26 C:/Program Files/Ingenico/IngeDev_7/plugins/com.ingenico.ingedev.telium.bin.win32.gnuarm.v434_7.16.0.6/os/win32/GNUARM/4.3.4/arm-elf/lib/thumb/soft/interwork/libc.a(lib_a-strlen.o)
 .debug_loc     0x00006a52       0x84 C:/Program Files/Ingenico/IngeDev_7/plugins/com.ingenico.ingedev.telium.bin.win32.gnuarm.v434_7.16.0.6/os/win32/GNUARM/4.3.4/arm-elf/lib/thumb/soft/interwork/libc.a(lib_a-strncat.o)
 .debug_loc     0x00006ad6       0x79 C:/Program Files/Ingenico/IngeDev_7/plugins/com.ingenico.ingedev.telium.bin.win32.gnuarm.v434_7.16.0.6/os/win32/GNUARM/4.3.4/arm-elf/lib/thumb/soft/interwork/libc.a(lib_a-strncpy.o)
 .debug_loc     0x00006b4f       0x92 C:/Program Files/Ingenico/IngeDev_7/plugins/com.ingenico.ingedev.telium.bin.win32.gnuarm.v434_7.16.0.6/os/win32/GNUARM/4.3.4/arm-elf/lib/thumb/soft/interwork/libc.a(lib_a-strstr.o)
 .debug_loc     0x00006be1       0x45 C:/Program Files/Ingenico/IngeDev_7/plugins/com.ingenico.ingedev.telium.bin.win32.gnuarm.v434_7.16.0.6/os/win32/GNUARM/4.3.4/arm-elf/lib/thumb/soft/interwork/libc.a(lib_a-strtok.o)
 .debug_loc     0x00006c26      0x217 C:/Program Files/Ingenico/IngeDev_7/plugins/com.ingenico.ingedev.telium.bin.win32.gnuarm.v434_7.16.0.6/os/win32/GNUARM/4.3.4/arm-elf/lib/thumb/soft/interwork/libc.a(lib_a-strtok_r.o)
 .debug_loc     0x00006e3d      0x219 C:/Program Files/Ingenico/IngeDev_7/plugins/com.ingenico.ingedev.telium.bin.win32.gnuarm.v434_7.16.0.6/os/win32/GNUARM/4.3.4/arm-elf/lib/thumb/soft/interwork/libc.a(lib_a-strtoul.o)
 .debug_loc     0x00007056     0x1868 C:/Program Files/Ingenico/IngeDev_7/plugins/com.ingenico.ingedev.telium.bin.win32.gnuarm.v434_7.16.0.6/os/win32/GNUARM/4.3.4/arm-elf/lib/thumb/soft/interwork/libc.a(lib_a-svfprintf.o)
 .debug_loc     0x000088be     0x1625 C:/Program Files/Ingenico/IngeDev_7/plugins/com.ingenico.ingedev.telium.bin.win32.gnuarm.v434_7.16.0.6/os/win32/GNUARM/4.3.4/arm-elf/lib/thumb/soft/interwork/libc.a(lib_a-dtoa.o)
 .debug_loc     0x00009ee3       0xf2 C:/Program Files/Ingenico/IngeDev_7/plugins/com.ingenico.ingedev.telium.bin.win32.gnuarm.v434_7.16.0.6/os/win32/GNUARM/4.3.4/arm-elf/lib/thumb/soft/interwork/libc.a(lib_a-locale.o)
 .debug_loc     0x00009fd5       0x5a C:/Program Files/Ingenico/IngeDev_7/plugins/com.ingenico.ingedev.telium.bin.win32.gnuarm.v434_7.16.0.6/os/win32/GNUARM/4.3.4/arm-elf/lib/thumb/soft/interwork/libc.a(lib_a-memchr.o)
 .debug_loc     0x0000a02f     0x1566 C:/Program Files/Ingenico/IngeDev_7/plugins/com.ingenico.ingedev.telium.bin.win32.gnuarm.v434_7.16.0.6/os/win32/GNUARM/4.3.4/arm-elf/lib/thumb/soft/interwork/libc.a(lib_a-mprec.o)
 .debug_loc     0x0000b595       0xd7 C:/Program Files/Ingenico/IngeDev_7/plugins/com.ingenico.ingedev.telium.bin.win32.gnuarm.v434_7.16.0.6/os/win32/GNUARM/4.3.4/arm-elf/lib/thumb/soft/interwork/libc.a(lib_a-s_fpclassify.o)
 .debug_loc     0x0000b66c     0x12d5 C:/Program Files/Ingenico/IngeDev_7/plugins/com.ingenico.ingedev.telium.bin.win32.gnuarm.v434_7.16.0.6/os/win32/GNUARM/4.3.4/arm-elf/lib/thumb/soft/interwork/libc.a(lib_a-svfiprintf.o)

.debug_pubnames
                0x00000000     0x1d12
 .debug_pubnames
                0x00000000       0x32 Obj/GNU_ARM_DEBUG/Backlight.o
 .debug_pubnames
                0x00000032      0x33f Obj/GNU_ARM_DEBUG/Boleto.o
 .debug_pubnames
                0x00000371       0xa4 Obj/GNU_ARM_DEBUG/Conn.o
 .debug_pubnames
                0x00000415      0x13f Obj/GNU_ARM_DEBUG/Dialogs.o
 .debug_pubnames
                0x00000554      0x1ba Obj/GNU_ARM_DEBUG/Entry.o
 .debug_pubnames
                0x0000070e       0x9f Obj/GNU_ARM_DEBUG/File.o
 .debug_pubnames
                0x000007ad       0xd6 Obj/GNU_ARM_DEBUG/FTP.o
 .debug_pubnames
                0x00000883       0x97 Obj/GNU_ARM_DEBUG/GPRS.o
 .debug_pubnames
                0x0000091a       0x6e Obj/GNU_ARM_DEBUG/HTTP.o
 .debug_pubnames
                0x00000988       0x94 Obj/GNU_ARM_DEBUG/Inicio.o
 .debug_pubnames
                0x00000a1c       0x1b Obj/GNU_ARM_DEBUG/Main.o
 .debug_pubnames
                0x00000a37      0x3a5 Obj/GNU_ARM_DEBUG/Menus.o
 .debug_pubnames
                0x00000ddc       0x1e Obj/GNU_ARM_DEBUG/NTP.o
 .debug_pubnames
                0x00000dfa       0x62 Obj/GNU_ARM_DEBUG/Sistema.o
 .debug_pubnames
                0x00000e5c       0x70 Obj/GNU_ARM_DEBUG/Recarga.o
 .debug_pubnames
                0x00000ecc       0x49 C:/Program Files/TeliumSDK/SDK 9.8.0/SDK/lib_gnu_434/libcpatch.o
 .debug_pubnames
                0x00000f15       0x35 C:/Program Files/TeliumSDK/SDK 9.8.0/SDK/lib_gnu_434/dll_wifi.lib(wifi.o)
 .debug_pubnames
                0x00000f4a       0x5a C:/Program Files/TeliumSDK/SDK 9.8.0/SDK/lib_gnu_434/dll_wifi.lib(wifi1.o)
 .debug_pubnames
                0x00000fa4       0x3d C:/Program Files/TeliumSDK/SDK 9.8.0/SDK/lib_gnu_434/dll_wifi.lib(wifi2.o)
 .debug_pubnames
                0x00000fe1       0x31 C:/Program Files/TeliumSDK/SDK 9.8.0/SDK/lib_gnu_434/dll_wifi.lib(wifi3.o)
 .debug_pubnames
                0x00001012       0x31 C:/Program Files/TeliumSDK/SDK 9.8.0/SDK/lib_gnu_434/dll_wifi.lib(wifi4.o)
 .debug_pubnames
                0x00001043       0x2f C:/Program Files/TeliumSDK/SDK 9.8.0/SDK/lib_gnu_434/dll_wifi.lib(wifi5.o)
 .debug_pubnames
                0x00001072       0x47 C:/Program Files/TeliumSDK/SDK 9.8.0/SDK/lib_gnu_434/dll_wifi.lib(wifi6.o)
 .debug_pubnames
                0x000010b9       0x41 C:/Program Files/TeliumSDK/SDK 9.8.0/SDK/lib_gnu_434/dll_wifi.lib(wifi7.o)
 .debug_pubnames
                0x000010fa       0x3f C:/Program Files/TeliumSDK/SDK 9.8.0/SDK/lib_gnu_434/dll_wifi.lib(wifi8.o)
 .debug_pubnames
                0x00001139       0x3b C:/Program Files/TeliumSDK/SDK 9.8.0/SDK/lib_gnu_434/dll_wifi.lib(wifi9.o)
 .debug_pubnames
                0x00001174       0x35 C:/Program Files/TeliumSDK/SDK 9.8.0/SDK/lib_gnu_434/dll_wifi.lib(wifi10.o)
 .debug_pubnames
                0x000011a9       0x35 C:/Program Files/TeliumSDK/SDK 9.8.0/SDK/lib_gnu_434/dll_wifi.lib(wifi11.o)
 .debug_pubnames
                0x000011de       0x3f C:/Program Files/TeliumSDK/SDK 9.8.0/SDK/lib_gnu_434/dll_wifi.lib(wifi12.o)
 .debug_pubnames
                0x0000121d       0x43 C:/Program Files/TeliumSDK/SDK 9.8.0/SDK/lib_gnu_434/dll_wifi.lib(wifi13.o)
 .debug_pubnames
                0x00001260       0x3b C:/Program Files/TeliumSDK/SDK 9.8.0/SDK/lib_gnu_434/dll_wifi.lib(wifi14.o)
 .debug_pubnames
                0x0000129b       0x3b C:/Program Files/TeliumSDK/SDK 9.8.0/SDK/lib_gnu_434/dll_wifi.lib(wifi15.o)
 .debug_pubnames
                0x000012d6       0x47 C:/Program Files/TeliumSDK/SDK 9.8.0/SDK/lib_gnu_434/dll_wifi.lib(wifi16.o)
 .debug_pubnames
                0x0000131d       0x41 C:/Program Files/TeliumSDK/SDK 9.8.0/SDK/lib_gnu_434/dll_wifi.lib(wifi17.o)
 .debug_pubnames
                0x0000135e       0x41 C:/Program Files/TeliumSDK/SDK 9.8.0/SDK/lib_gnu_434/dll_wifi.lib(wifi18.o)
 .debug_pubnames
                0x0000139f       0x45 C:/Program Files/TeliumSDK/SDK 9.8.0/SDK/lib_gnu_434/dll_wifi.lib(wifi19.o)
 .debug_pubnames
                0x000013e4       0x45 C:/Program Files/TeliumSDK/SDK 9.8.0/SDK/lib_gnu_434/dll_wifi.lib(wifi20.o)
 .debug_pubnames
                0x00001429       0x43 C:/Program Files/TeliumSDK/SDK 9.8.0/SDK/lib_gnu_434/dll_wifi.lib(wifi21.o)
 .debug_pubnames
                0x0000146c       0x3f C:/Program Files/TeliumSDK/SDK 9.8.0/SDK/lib_gnu_434/dll_wifi.lib(wifi22.o)
 .debug_pubnames
                0x000014ab       0x3f C:/Program Files/TeliumSDK/SDK 9.8.0/SDK/lib_gnu_434/dll_wifi.lib(wifi23.o)
 .debug_pubnames
                0x000014ea       0x43 C:/Program Files/TeliumSDK/SDK 9.8.0/SDK/lib_gnu_434/dll_wifi.lib(wifi24.o)
 .debug_pubnames
                0x0000152d       0x3f C:/Program Files/TeliumSDK/SDK 9.8.0/SDK/lib_gnu_434/dll_wifi.lib(wifi25.o)
 .debug_pubnames
                0x0000156c       0x3b C:/Program Files/TeliumSDK/SDK 9.8.0/SDK/lib_gnu_434/dll_wifi.lib(wifi26.o)
 .debug_pubnames
                0x000015a7       0x35 C:/Program Files/TeliumSDK/SDK 9.8.0/SDK/lib_gnu_434/dll_wifi.lib(wifi27.o)
 .debug_pubnames
                0x000015dc       0x35 C:/Program Files/TeliumSDK/SDK 9.8.0/SDK/lib_gnu_434/dll_wifi.lib(wifi28.o)
 .debug_pubnames
                0x00001611       0x3f C:/Program Files/TeliumSDK/SDK 9.8.0/SDK/lib_gnu_434/dll_wifi.lib(wifi29.o)
 .debug_pubnames
                0x00001650       0x43 C:/Program Files/TeliumSDK/SDK 9.8.0/SDK/lib_gnu_434/dll_wifi.lib(wifi30.o)
 .debug_pubnames
                0x00001693       0x3b C:/Program Files/TeliumSDK/SDK 9.8.0/SDK/lib_gnu_434/dll_wifi.lib(wifi31.o)
 .debug_pubnames
                0x000016ce       0x3b C:/Program Files/TeliumSDK/SDK 9.8.0/SDK/lib_gnu_434/dll_wifi.lib(wifi32.o)
 .debug_pubnames
                0x00001709       0x3b C:/Program Files/TeliumSDK/SDK 9.8.0/SDK/lib_gnu_434/dll_wifi.lib(wifi33.o)
 .debug_pubnames
                0x00001744       0x47 C:/Program Files/TeliumSDK/SDK 9.8.0/SDK/lib_gnu_434/dll_wifi.lib(wifi34.o)
 .debug_pubnames
                0x0000178b       0x46 C:/Program Files/TeliumSDK/SDK 9.8.0/SDK/lib_gnu_434/dll_wifi.lib(wifi35.o)
 .debug_pubnames
                0x000017d1       0x1d C:/Program Files/Ingenico/IngeDev_7/plugins/com.ingenico.ingedev.telium.bin.win32.gnuarm.v434_7.16.0.6/os/win32/GNUARM/4.3.4/arm-elf/lib/thumb/soft/interwork/libc.a(lib_a-memcmp.o)
 .debug_pubnames
                0x000017ee       0x1d C:/Program Files/Ingenico/IngeDev_7/plugins/com.ingenico.ingedev.telium.bin.win32.gnuarm.v434_7.16.0.6/os/win32/GNUARM/4.3.4/arm-elf/lib/thumb/soft/interwork/libc.a(lib_a-memcpy.o)
 .debug_pubnames
                0x0000180b       0x1e C:/Program Files/Ingenico/IngeDev_7/plugins/com.ingenico.ingedev.telium.bin.win32.gnuarm.v434_7.16.0.6/os/win32/GNUARM/4.3.4/arm-elf/lib/thumb/soft/interwork/libc.a(lib_a-memmove.o)
 .debug_pubnames
                0x00001829       0x1d C:/Program Files/Ingenico/IngeDev_7/plugins/com.ingenico.ingedev.telium.bin.win32.gnuarm.v434_7.16.0.6/os/win32/GNUARM/4.3.4/arm-elf/lib/thumb/soft/interwork/libc.a(lib_a-memset.o)
 .debug_pubnames
                0x00001846       0x2f C:/Program Files/Ingenico/IngeDev_7/plugins/com.ingenico.ingedev.telium.bin.win32.gnuarm.v434_7.16.0.6/os/win32/GNUARM/4.3.4/arm-elf/lib/thumb/soft/interwork/libc.a(lib_a-snprintf.o)
 .debug_pubnames
                0x00001875       0x1d C:/Program Files/Ingenico/IngeDev_7/plugins/com.ingenico.ingedev.telium.bin.win32.gnuarm.v434_7.16.0.6/os/win32/GNUARM/4.3.4/arm-elf/lib/thumb/soft/interwork/libc.a(lib_a-strcat.o)
 .debug_pubnames
                0x00001892       0x1d C:/Program Files/Ingenico/IngeDev_7/plugins/com.ingenico.ingedev.telium.bin.win32.gnuarm.v434_7.16.0.6/os/win32/GNUARM/4.3.4/arm-elf/lib/thumb/soft/interwork/libc.a(lib_a-strchr.o)
 .debug_pubnames
                0x000018af       0x1d C:/Program Files/Ingenico/IngeDev_7/plugins/com.ingenico.ingedev.telium.bin.win32.gnuarm.v434_7.16.0.6/os/win32/GNUARM/4.3.4/arm-elf/lib/thumb/soft/interwork/libc.a(lib_a-strcmp.o)
 .debug_pubnames
                0x000018cc       0x1d C:/Program Files/Ingenico/IngeDev_7/plugins/com.ingenico.ingedev.telium.bin.win32.gnuarm.v434_7.16.0.6/os/win32/GNUARM/4.3.4/arm-elf/lib/thumb/soft/interwork/libc.a(lib_a-strcpy.o)
 .debug_pubnames
                0x000018e9       0x1d C:/Program Files/Ingenico/IngeDev_7/plugins/com.ingenico.ingedev.telium.bin.win32.gnuarm.v434_7.16.0.6/os/win32/GNUARM/4.3.4/arm-elf/lib/thumb/soft/interwork/libc.a(lib_a-strlen.o)
 .debug_pubnames
                0x00001906       0x1e C:/Program Files/Ingenico/IngeDev_7/plugins/com.ingenico.ingedev.telium.bin.win32.gnuarm.v434_7.16.0.6/os/win32/GNUARM/4.3.4/arm-elf/lib/thumb/soft/interwork/libc.a(lib_a-strncat.o)
 .debug_pubnames
                0x00001924       0x1e C:/Program Files/Ingenico/IngeDev_7/plugins/com.ingenico.ingedev.telium.bin.win32.gnuarm.v434_7.16.0.6/os/win32/GNUARM/4.3.4/arm-elf/lib/thumb/soft/interwork/libc.a(lib_a-strncpy.o)
 .debug_pubnames
                0x00001942       0x1d C:/Program Files/Ingenico/IngeDev_7/plugins/com.ingenico.ingedev.telium.bin.win32.gnuarm.v434_7.16.0.6/os/win32/GNUARM/4.3.4/arm-elf/lib/thumb/soft/interwork/libc.a(lib_a-strstr.o)
 .debug_pubnames
                0x0000195f       0x1d C:/Program Files/Ingenico/IngeDev_7/plugins/com.ingenico.ingedev.telium.bin.win32.gnuarm.v434_7.16.0.6/os/win32/GNUARM/4.3.4/arm-elf/lib/thumb/soft/interwork/libc.a(lib_a-strtok.o)
 .debug_pubnames
                0x0000197c       0x2e C:/Program Files/Ingenico/IngeDev_7/plugins/com.ingenico.ingedev.telium.bin.win32.gnuarm.v434_7.16.0.6/os/win32/GNUARM/4.3.4/arm-elf/lib/thumb/soft/interwork/libc.a(lib_a-strtok_r.o)
 .debug_pubnames
                0x000019aa       0x2d C:/Program Files/Ingenico/IngeDev_7/plugins/com.ingenico.ingedev.telium.bin.win32.gnuarm.v434_7.16.0.6/os/win32/GNUARM/4.3.4/arm-elf/lib/thumb/soft/interwork/libc.a(lib_a-strtoul.o)
 .debug_pubnames
                0x000019d7       0x23 C:/Program Files/Ingenico/IngeDev_7/plugins/com.ingenico.ingedev.telium.bin.win32.gnuarm.v434_7.16.0.6/os/win32/GNUARM/4.3.4/arm-elf/lib/thumb/soft/interwork/libc.a(lib_a-svfprintf.o)
 .debug_pubnames
                0x000019fa       0x30 C:/Program Files/Ingenico/IngeDev_7/plugins/com.ingenico.ingedev.telium.bin.win32.gnuarm.v434_7.16.0.6/os/win32/GNUARM/4.3.4/arm-elf/lib/thumb/soft/interwork/libc.a(lib_a-ctype_.o)
 .debug_pubnames
                0x00001a2a       0x1e C:/Program Files/Ingenico/IngeDev_7/plugins/com.ingenico.ingedev.telium.bin.win32.gnuarm.v434_7.16.0.6/os/win32/GNUARM/4.3.4/arm-elf/lib/thumb/soft/interwork/libc.a(lib_a-dtoa.o)
 .debug_pubnames
                0x00001a48       0x39 C:/Program Files/Ingenico/IngeDev_7/plugins/com.ingenico.ingedev.telium.bin.win32.gnuarm.v434_7.16.0.6/os/win32/GNUARM/4.3.4/arm-elf/lib/thumb/soft/interwork/libc.a(lib_a-impure.o)
 .debug_pubnames
                0x00001a81       0xe2 C:/Program Files/Ingenico/IngeDev_7/plugins/com.ingenico.ingedev.telium.bin.win32.gnuarm.v434_7.16.0.6/os/win32/GNUARM/4.3.4/arm-elf/lib/thumb/soft/interwork/libc.a(lib_a-locale.o)
 .debug_pubnames
                0x00001b63       0x1d C:/Program Files/Ingenico/IngeDev_7/plugins/com.ingenico.ingedev.telium.bin.win32.gnuarm.v434_7.16.0.6/os/win32/GNUARM/4.3.4/arm-elf/lib/thumb/soft/interwork/libc.a(lib_a-memchr.o)
 .debug_pubnames
                0x00001b80      0x13a C:/Program Files/Ingenico/IngeDev_7/plugins/com.ingenico.ingedev.telium.bin.win32.gnuarm.v434_7.16.0.6/os/win32/GNUARM/4.3.4/arm-elf/lib/thumb/soft/interwork/libc.a(lib_a-mprec.o)
 .debug_pubnames
                0x00001cba       0x24 C:/Program Files/Ingenico/IngeDev_7/plugins/com.ingenico.ingedev.telium.bin.win32.gnuarm.v434_7.16.0.6/os/win32/GNUARM/4.3.4/arm-elf/lib/thumb/soft/interwork/libc.a(lib_a-s_fpclassify.o)
 .debug_pubnames
                0x00001cde       0x34 C:/Program Files/Ingenico/IngeDev_7/plugins/com.ingenico.ingedev.telium.bin.win32.gnuarm.v434_7.16.0.6/os/win32/GNUARM/4.3.4/arm-elf/lib/thumb/soft/interwork/libc.a(lib_a-svfiprintf.o)

.debug_aranges  0x00000000      0xa80
 .debug_aranges
                0x00000000       0x20 Obj/GNU_ARM_DEBUG/Backlight.o
 .debug_aranges
                0x00000020       0x20 Obj/GNU_ARM_DEBUG/Boleto.o
 .debug_aranges
                0x00000040       0x20 Obj/GNU_ARM_DEBUG/Conn.o
 .debug_aranges
                0x00000060       0x20 Obj/GNU_ARM_DEBUG/Dialogs.o
 .debug_aranges
                0x00000080       0x20 Obj/GNU_ARM_DEBUG/Entry.o
 .debug_aranges
                0x000000a0       0x20 Obj/GNU_ARM_DEBUG/File.o
 .debug_aranges
                0x000000c0       0x20 Obj/GNU_ARM_DEBUG/FTP.o
 .debug_aranges
                0x000000e0       0x20 Obj/GNU_ARM_DEBUG/GPRS.o
 .debug_aranges
                0x00000100       0x20 Obj/GNU_ARM_DEBUG/HTTP.o
 .debug_aranges
                0x00000120       0x20 Obj/GNU_ARM_DEBUG/Inicio.o
 .debug_aranges
                0x00000140       0x20 Obj/GNU_ARM_DEBUG/Main.o
 .debug_aranges
                0x00000160       0x20 Obj/GNU_ARM_DEBUG/Menus.o
 .debug_aranges
                0x00000180       0x20 Obj/GNU_ARM_DEBUG/NTP.o
 .debug_aranges
                0x000001a0       0x20 Obj/GNU_ARM_DEBUG/Sistema.o
 .debug_aranges
                0x000001c0       0x20 Obj/GNU_ARM_DEBUG/Recarga.o
 .debug_aranges
                0x000001e0       0x20 C:/Program Files/TeliumSDK/SDK 9.8.0/SDK/lib_gnu_434/libcpatch.o
 .debug_aranges
                0x00000200       0x20 C:/Program Files/TeliumSDK/SDK 9.8.0/SDK/lib_gnu_434/dll_wifi.lib(wifi.o)
 .debug_aranges
                0x00000220       0x20 C:/Program Files/TeliumSDK/SDK 9.8.0/SDK/lib_gnu_434/dll_wifi.lib(wifi1.o)
 .debug_aranges
                0x00000240       0x20 C:/Program Files/TeliumSDK/SDK 9.8.0/SDK/lib_gnu_434/dll_wifi.lib(wifi2.o)
 .debug_aranges
                0x00000260       0x20 C:/Program Files/TeliumSDK/SDK 9.8.0/SDK/lib_gnu_434/dll_wifi.lib(wifi3.o)
 .debug_aranges
                0x00000280       0x20 C:/Program Files/TeliumSDK/SDK 9.8.0/SDK/lib_gnu_434/dll_wifi.lib(wifi4.o)
 .debug_aranges
                0x000002a0       0x20 C:/Program Files/TeliumSDK/SDK 9.8.0/SDK/lib_gnu_434/dll_wifi.lib(wifi5.o)
 .debug_aranges
                0x000002c0       0x20 C:/Program Files/TeliumSDK/SDK 9.8.0/SDK/lib_gnu_434/dll_wifi.lib(wifi6.o)
 .debug_aranges
                0x000002e0       0x20 C:/Program Files/TeliumSDK/SDK 9.8.0/SDK/lib_gnu_434/dll_wifi.lib(wifi7.o)
 .debug_aranges
                0x00000300       0x20 C:/Program Files/TeliumSDK/SDK 9.8.0/SDK/lib_gnu_434/dll_wifi.lib(wifi8.o)
 .debug_aranges
                0x00000320       0x20 C:/Program Files/TeliumSDK/SDK 9.8.0/SDK/lib_gnu_434/dll_wifi.lib(wifi9.o)
 .debug_aranges
                0x00000340       0x20 C:/Program Files/TeliumSDK/SDK 9.8.0/SDK/lib_gnu_434/dll_wifi.lib(wifi10.o)
 .debug_aranges
                0x00000360       0x20 C:/Program Files/TeliumSDK/SDK 9.8.0/SDK/lib_gnu_434/dll_wifi.lib(wifi11.o)
 .debug_aranges
                0x00000380       0x20 C:/Program Files/TeliumSDK/SDK 9.8.0/SDK/lib_gnu_434/dll_wifi.lib(wifi12.o)
 .debug_aranges
                0x000003a0       0x20 C:/Program Files/TeliumSDK/SDK 9.8.0/SDK/lib_gnu_434/dll_wifi.lib(wifi13.o)
 .debug_aranges
                0x000003c0       0x20 C:/Program Files/TeliumSDK/SDK 9.8.0/SDK/lib_gnu_434/dll_wifi.lib(wifi14.o)
 .debug_aranges
                0x000003e0       0x20 C:/Program Files/TeliumSDK/SDK 9.8.0/SDK/lib_gnu_434/dll_wifi.lib(wifi15.o)
 .debug_aranges
                0x00000400       0x20 C:/Program Files/TeliumSDK/SDK 9.8.0/SDK/lib_gnu_434/dll_wifi.lib(wifi16.o)
 .debug_aranges
                0x00000420       0x20 C:/Program Files/TeliumSDK/SDK 9.8.0/SDK/lib_gnu_434/dll_wifi.lib(wifi17.o)
 .debug_aranges
                0x00000440       0x20 C:/Program Files/TeliumSDK/SDK 9.8.0/SDK/lib_gnu_434/dll_wifi.lib(wifi18.o)
 .debug_aranges
                0x00000460       0x20 C:/Program Files/TeliumSDK/SDK 9.8.0/SDK/lib_gnu_434/dll_wifi.lib(wifi19.o)
 .debug_aranges
                0x00000480       0x20 C:/Program Files/TeliumSDK/SDK 9.8.0/SDK/lib_gnu_434/dll_wifi.lib(wifi20.o)
 .debug_aranges
                0x000004a0       0x20 C:/Program Files/TeliumSDK/SDK 9.8.0/SDK/lib_gnu_434/dll_wifi.lib(wifi21.o)
 .debug_aranges
                0x000004c0       0x20 C:/Program Files/TeliumSDK/SDK 9.8.0/SDK/lib_gnu_434/dll_wifi.lib(wifi22.o)
 .debug_aranges
                0x000004e0       0x20 C:/Program Files/TeliumSDK/SDK 9.8.0/SDK/lib_gnu_434/dll_wifi.lib(wifi23.o)
 .debug_aranges
                0x00000500       0x20 C:/Program Files/TeliumSDK/SDK 9.8.0/SDK/lib_gnu_434/dll_wifi.lib(wifi24.o)
 .debug_aranges
                0x00000520       0x20 C:/Program Files/TeliumSDK/SDK 9.8.0/SDK/lib_gnu_434/dll_wifi.lib(wifi25.o)
 .debug_aranges
                0x00000540       0x20 C:/Program Files/TeliumSDK/SDK 9.8.0/SDK/lib_gnu_434/dll_wifi.lib(wifi26.o)
 .debug_aranges
                0x00000560       0x20 C:/Program Files/TeliumSDK/SDK 9.8.0/SDK/lib_gnu_434/dll_wifi.lib(wifi27.o)
 .debug_aranges
                0x00000580       0x20 C:/Program Files/TeliumSDK/SDK 9.8.0/SDK/lib_gnu_434/dll_wifi.lib(wifi28.o)
 .debug_aranges
                0x000005a0       0x20 C:/Program Files/TeliumSDK/SDK 9.8.0/SDK/lib_gnu_434/dll_wifi.lib(wifi29.o)
 .debug_aranges
                0x000005c0       0x20 C:/Program Files/TeliumSDK/SDK 9.8.0/SDK/lib_gnu_434/dll_wifi.lib(wifi30.o)
 .debug_aranges
                0x000005e0       0x20 C:/Program Files/TeliumSDK/SDK 9.8.0/SDK/lib_gnu_434/dll_wifi.lib(wifi31.o)
 .debug_aranges
                0x00000600       0x20 C:/Program Files/TeliumSDK/SDK 9.8.0/SDK/lib_gnu_434/dll_wifi.lib(wifi32.o)
 .debug_aranges
                0x00000620       0x20 C:/Program Files/TeliumSDK/SDK 9.8.0/SDK/lib_gnu_434/dll_wifi.lib(wifi33.o)
 .debug_aranges
                0x00000640       0x20 C:/Program Files/TeliumSDK/SDK 9.8.0/SDK/lib_gnu_434/dll_wifi.lib(wifi34.o)
 .debug_aranges
                0x00000660       0x20 C:/Program Files/TeliumSDK/SDK 9.8.0/SDK/lib_gnu_434/dll_wifi.lib(wifi35.o)
 .debug_aranges
                0x00000680       0x20 C:/Program Files/Ingenico/IngeDev_7/plugins/com.ingenico.ingedev.telium.bin.win32.gnuarm.v434_7.16.0.6/os/win32/GNUARM/4.3.4/arm-elf/lib/thumb/soft/interwork/libc.a(lib_a-memcmp.o)
 .debug_aranges
                0x000006a0       0x20 C:/Program Files/Ingenico/IngeDev_7/plugins/com.ingenico.ingedev.telium.bin.win32.gnuarm.v434_7.16.0.6/os/win32/GNUARM/4.3.4/arm-elf/lib/thumb/soft/interwork/libc.a(lib_a-memcpy.o)
 .debug_aranges
                0x000006c0       0x20 C:/Program Files/Ingenico/IngeDev_7/plugins/com.ingenico.ingedev.telium.bin.win32.gnuarm.v434_7.16.0.6/os/win32/GNUARM/4.3.4/arm-elf/lib/thumb/soft/interwork/libc.a(lib_a-memmove.o)
 .debug_aranges
                0x000006e0       0x20 C:/Program Files/Ingenico/IngeDev_7/plugins/com.ingenico.ingedev.telium.bin.win32.gnuarm.v434_7.16.0.6/os/win32/GNUARM/4.3.4/arm-elf/lib/thumb/soft/interwork/libc.a(lib_a-memset.o)
 .debug_aranges
                0x00000700       0x20 C:/Program Files/Ingenico/IngeDev_7/plugins/com.ingenico.ingedev.telium.bin.win32.gnuarm.v434_7.16.0.6/os/win32/GNUARM/4.3.4/arm-elf/lib/thumb/soft/interwork/libc.a(lib_a-snprintf.o)
 .debug_aranges
                0x00000720       0x20 C:/Program Files/Ingenico/IngeDev_7/plugins/com.ingenico.ingedev.telium.bin.win32.gnuarm.v434_7.16.0.6/os/win32/GNUARM/4.3.4/arm-elf/lib/thumb/soft/interwork/libc.a(lib_a-strcat.o)
 .debug_aranges
                0x00000740       0x20 C:/Program Files/Ingenico/IngeDev_7/plugins/com.ingenico.ingedev.telium.bin.win32.gnuarm.v434_7.16.0.6/os/win32/GNUARM/4.3.4/arm-elf/lib/thumb/soft/interwork/libc.a(lib_a-strchr.o)
 .debug_aranges
                0x00000760       0x20 C:/Program Files/Ingenico/IngeDev_7/plugins/com.ingenico.ingedev.telium.bin.win32.gnuarm.v434_7.16.0.6/os/win32/GNUARM/4.3.4/arm-elf/lib/thumb/soft/interwork/libc.a(lib_a-strcmp.o)
 .debug_aranges
                0x00000780       0x20 C:/Program Files/Ingenico/IngeDev_7/plugins/com.ingenico.ingedev.telium.bin.win32.gnuarm.v434_7.16.0.6/os/win32/GNUARM/4.3.4/arm-elf/lib/thumb/soft/interwork/libc.a(lib_a-strcpy.o)
 .debug_aranges
                0x000007a0       0x20 C:/Program Files/Ingenico/IngeDev_7/plugins/com.ingenico.ingedev.telium.bin.win32.gnuarm.v434_7.16.0.6/os/win32/GNUARM/4.3.4/arm-elf/lib/thumb/soft/interwork/libc.a(lib_a-strlen.o)
 .debug_aranges
                0x000007c0       0x20 C:/Program Files/Ingenico/IngeDev_7/plugins/com.ingenico.ingedev.telium.bin.win32.gnuarm.v434_7.16.0.6/os/win32/GNUARM/4.3.4/arm-elf/lib/thumb/soft/interwork/libc.a(lib_a-strncat.o)
 .debug_aranges
                0x000007e0       0x20 C:/Program Files/Ingenico/IngeDev_7/plugins/com.ingenico.ingedev.telium.bin.win32.gnuarm.v434_7.16.0.6/os/win32/GNUARM/4.3.4/arm-elf/lib/thumb/soft/interwork/libc.a(lib_a-strncpy.o)
 .debug_aranges
                0x00000800       0x20 C:/Program Files/Ingenico/IngeDev_7/plugins/com.ingenico.ingedev.telium.bin.win32.gnuarm.v434_7.16.0.6/os/win32/GNUARM/4.3.4/arm-elf/lib/thumb/soft/interwork/libc.a(lib_a-strstr.o)
 .debug_aranges
                0x00000820       0x20 C:/Program Files/Ingenico/IngeDev_7/plugins/com.ingenico.ingedev.telium.bin.win32.gnuarm.v434_7.16.0.6/os/win32/GNUARM/4.3.4/arm-elf/lib/thumb/soft/interwork/libc.a(lib_a-strtok.o)
 .debug_aranges
                0x00000840       0x20 C:/Program Files/Ingenico/IngeDev_7/plugins/com.ingenico.ingedev.telium.bin.win32.gnuarm.v434_7.16.0.6/os/win32/GNUARM/4.3.4/arm-elf/lib/thumb/soft/interwork/libc.a(lib_a-strtok_r.o)
 .debug_aranges
                0x00000860       0x20 C:/Program Files/Ingenico/IngeDev_7/plugins/com.ingenico.ingedev.telium.bin.win32.gnuarm.v434_7.16.0.6/os/win32/GNUARM/4.3.4/arm-elf/lib/thumb/soft/interwork/libc.a(lib_a-strtoul.o)
 .debug_aranges
                0x00000880       0x20 C:/Program Files/Ingenico/IngeDev_7/plugins/com.ingenico.ingedev.telium.bin.win32.gnuarm.v434_7.16.0.6/os/win32/GNUARM/4.3.4/arm-elf/lib/thumb/soft/interwork/libc.a(lib_a-svfprintf.o)
 .debug_aranges
                0x000008a0       0x20 C:/Program Files/Ingenico/IngeDev_7/plugins/com.ingenico.ingedev.telium.bin.win32.gnuarm.v434_7.16.0.6/os/win32/GNUARM/4.3.4/arm-elf/lib/thumb/soft/interwork/libc.a(lib_a-dtoa.o)
 .debug_aranges
                0x000008c0       0x20 C:/Program Files/Ingenico/IngeDev_7/plugins/com.ingenico.ingedev.telium.bin.win32.gnuarm.v434_7.16.0.6/os/win32/GNUARM/4.3.4/arm-elf/lib/thumb/soft/interwork/libc.a(lib_a-locale.o)
 .debug_aranges
                0x000008e0       0x20 C:/Program Files/Ingenico/IngeDev_7/plugins/com.ingenico.ingedev.telium.bin.win32.gnuarm.v434_7.16.0.6/os/win32/GNUARM/4.3.4/arm-elf/lib/thumb/soft/interwork/libc.a(lib_a-memchr.o)
 .debug_aranges
                0x00000900       0x20 C:/Program Files/Ingenico/IngeDev_7/plugins/com.ingenico.ingedev.telium.bin.win32.gnuarm.v434_7.16.0.6/os/win32/GNUARM/4.3.4/arm-elf/lib/thumb/soft/interwork/libc.a(lib_a-mprec.o)
 .debug_aranges
                0x00000920       0x20 C:/Program Files/Ingenico/IngeDev_7/plugins/com.ingenico.ingedev.telium.bin.win32.gnuarm.v434_7.16.0.6/os/win32/GNUARM/4.3.4/arm-elf/lib/thumb/soft/interwork/libc.a(lib_a-s_fpclassify.o)
 .debug_aranges
                0x00000940       0x20 C:/Program Files/Ingenico/IngeDev_7/plugins/com.ingenico.ingedev.telium.bin.win32.gnuarm.v434_7.16.0.6/os/win32/GNUARM/4.3.4/arm-elf/lib/thumb/soft/interwork/libc.a(lib_a-svfiprintf.o)
 .debug_aranges
                0x00000960       0x20 C:/Program Files/Ingenico/IngeDev_7/plugins/com.ingenico.ingedev.telium.bin.win32.gnuarm.v434_7.16.0.6/os/win32/GNUARM/4.3.4/lib/gcc/arm-elf/4.3.4/thumb/soft/interwork/libgcc.a(_udivsi3.o)
 .debug_aranges
                0x00000980       0x20 C:/Program Files/Ingenico/IngeDev_7/plugins/com.ingenico.ingedev.telium.bin.win32.gnuarm.v434_7.16.0.6/os/win32/GNUARM/4.3.4/lib/gcc/arm-elf/4.3.4/thumb/soft/interwork/libgcc.a(_divsi3.o)
 .debug_aranges
                0x000009a0       0x20 C:/Program Files/Ingenico/IngeDev_7/plugins/com.ingenico.ingedev.telium.bin.win32.gnuarm.v434_7.16.0.6/os/win32/GNUARM/4.3.4/lib/gcc/arm-elf/4.3.4/thumb/soft/interwork/libgcc.a(_umodsi3.o)
 .debug_aranges
                0x000009c0       0x20 C:/Program Files/Ingenico/IngeDev_7/plugins/com.ingenico.ingedev.telium.bin.win32.gnuarm.v434_7.16.0.6/os/win32/GNUARM/4.3.4/lib/gcc/arm-elf/4.3.4/thumb/soft/interwork/libgcc.a(_modsi3.o)
 .debug_aranges
                0x000009e0       0x20 C:/Program Files/Ingenico/IngeDev_7/plugins/com.ingenico.ingedev.telium.bin.win32.gnuarm.v434_7.16.0.6/os/win32/GNUARM/4.3.4/lib/gcc/arm-elf/4.3.4/thumb/soft/interwork/libgcc.a(_dvmd_tls.o)
 .debug_aranges
                0x00000a00       0x20 C:/Program Files/Ingenico/IngeDev_7/plugins/com.ingenico.ingedev.telium.bin.win32.gnuarm.v434_7.16.0.6/os/win32/GNUARM/4.3.4/lib/gcc/arm-elf/4.3.4/thumb/soft/interwork/libgcc.a(_addsubdf3.o)
 .debug_aranges
                0x00000a20       0x20 C:/Program Files/Ingenico/IngeDev_7/plugins/com.ingenico.ingedev.telium.bin.win32.gnuarm.v434_7.16.0.6/os/win32/GNUARM/4.3.4/lib/gcc/arm-elf/4.3.4/thumb/soft/interwork/libgcc.a(_muldivdf3.o)
 .debug_aranges
                0x00000a40       0x20 C:/Program Files/Ingenico/IngeDev_7/plugins/com.ingenico.ingedev.telium.bin.win32.gnuarm.v434_7.16.0.6/os/win32/GNUARM/4.3.4/lib/gcc/arm-elf/4.3.4/thumb/soft/interwork/libgcc.a(_cmpdf2.o)
 .debug_aranges
                0x00000a60       0x20 C:/Program Files/Ingenico/IngeDev_7/plugins/com.ingenico.ingedev.telium.bin.win32.gnuarm.v434_7.16.0.6/os/win32/GNUARM/4.3.4/lib/gcc/arm-elf/4.3.4/thumb/soft/interwork/libgcc.a(_fixdfsi.o)

.debug_str      0x00000000     0x4233
 .debug_str     0x00000000      0x259 Obj/GNU_ARM_DEBUG/Backlight.o
                                0x2bf (size before relaxing)
 .debug_str     0x00000259      0x367 Obj/GNU_ARM_DEBUG/Boleto.o
                                0x5fe (size before relaxing)
 .debug_str     0x000005c0      0x150 Obj/GNU_ARM_DEBUG/Conn.o
                                0x3dc (size before relaxing)
 .debug_str     0x00000710      0x2f9 Obj/GNU_ARM_DEBUG/Dialogs.o
                                0x4da (size before relaxing)
 .debug_str     0x00000a09      0x7c5 Obj/GNU_ARM_DEBUG/Entry.o
                                0xb48 (size before relaxing)
 .debug_str     0x000011ce       0x94 Obj/GNU_ARM_DEBUG/File.o
                                0x2b7 (size before relaxing)
 .debug_str     0x00001262      0x1bb Obj/GNU_ARM_DEBUG/FTP.o
                                0x314 (size before relaxing)
 .debug_str     0x0000141d       0xc9 Obj/GNU_ARM_DEBUG/GPRS.o
                                0x357 (size before relaxing)
 .debug_str     0x000014e6      0x125 Obj/GNU_ARM_DEBUG/HTTP.o
                                0x30b (size before relaxing)
 .debug_str     0x0000160b       0x57 Obj/GNU_ARM_DEBUG/Inicio.o
                                0x2b2 (size before relaxing)
 .debug_str     0x00001662      0x882 Obj/GNU_ARM_DEBUG/Main.o
                               0x1237 (size before relaxing)
 .debug_str     0x00001ee4      0x431 Obj/GNU_ARM_DEBUG/Menus.o
                                0x8c9 (size before relaxing)
 .debug_str     0x00002315       0x41 Obj/GNU_ARM_DEBUG/NTP.o
                                0x1ac (size before relaxing)
 .debug_str     0x00002356      0x22f Obj/GNU_ARM_DEBUG/Sistema.o
                                0x42a (size before relaxing)
 .debug_str     0x00002585       0xb0 Obj/GNU_ARM_DEBUG/Recarga.o
                                0x52a (size before relaxing)
 .debug_str     0x00002635       0x20 C:/Program Files/TeliumSDK/SDK 9.8.0/SDK/lib_gnu_434/libcpatch.o
 .debug_str     0x00002655      0x41e C:/Program Files/TeliumSDK/SDK 9.8.0/SDK/lib_gnu_434/dll_wifi.lib(wifi.o)
                                0x515 (size before relaxing)
 .debug_str     0x00002a73       0x32 C:/Program Files/TeliumSDK/SDK 9.8.0/SDK/lib_gnu_434/dll_wifi.lib(wifi1.o)
                                0x131 (size before relaxing)
 .debug_str     0x00002aa5       0x16 C:/Program Files/TeliumSDK/SDK 9.8.0/SDK/lib_gnu_434/dll_wifi.lib(wifi2.o)
                                0x118 (size before relaxing)
 .debug_str     0x00002abb       0x16 C:/Program Files/TeliumSDK/SDK 9.8.0/SDK/lib_gnu_434/dll_wifi.lib(wifi3.o)
                                0x107 (size before relaxing)
 .debug_str     0x00002ad1       0x16 C:/Program Files/TeliumSDK/SDK 9.8.0/SDK/lib_gnu_434/dll_wifi.lib(wifi4.o)
                                0x107 (size before relaxing)
 .debug_str     0x00002ae7       0x16 C:/Program Files/TeliumSDK/SDK 9.8.0/SDK/lib_gnu_434/dll_wifi.lib(wifi5.o)
                                0x10a (size before relaxing)
 .debug_str     0x00002afd       0x16 C:/Program Files/TeliumSDK/SDK 9.8.0/SDK/lib_gnu_434/dll_wifi.lib(wifi6.o)
                                0x122 (size before relaxing)
 .debug_str     0x00002b13       0x22 C:/Program Files/TeliumSDK/SDK 9.8.0/SDK/lib_gnu_434/dll_wifi.lib(wifi7.o)
                                0x11d (size before relaxing)
 .debug_str     0x00002b35       0x21 C:/Program Files/TeliumSDK/SDK 9.8.0/SDK/lib_gnu_434/dll_wifi.lib(wifi8.o)
                                0x11a (size before relaxing)
 .debug_str     0x00002b56       0x16 C:/Program Files/TeliumSDK/SDK 9.8.0/SDK/lib_gnu_434/dll_wifi.lib(wifi9.o)
                                0x113 (size before relaxing)
 .debug_str     0x00002b6c       0x23 C:/Program Files/TeliumSDK/SDK 9.8.0/SDK/lib_gnu_434/dll_wifi.lib(wifi10.o)
                                0x112 (size before relaxing)
 .debug_str     0x00002b8f       0x17 C:/Program Files/TeliumSDK/SDK 9.8.0/SDK/lib_gnu_434/dll_wifi.lib(wifi11.o)
                                0x112 (size before relaxing)
 .debug_str     0x00002ba6       0x17 C:/Program Files/TeliumSDK/SDK 9.8.0/SDK/lib_gnu_434/dll_wifi.lib(wifi12.o)
                                0x11b (size before relaxing)
 .debug_str     0x00002bbd       0x17 C:/Program Files/TeliumSDK/SDK 9.8.0/SDK/lib_gnu_434/dll_wifi.lib(wifi13.o)
                                0x11f (size before relaxing)
 .debug_str     0x00002bd4       0x17 C:/Program Files/TeliumSDK/SDK 9.8.0/SDK/lib_gnu_434/dll_wifi.lib(wifi14.o)
                                0x117 (size before relaxing)
 .debug_str     0x00002beb       0x2e C:/Program Files/TeliumSDK/SDK 9.8.0/SDK/lib_gnu_434/dll_wifi.lib(wifi15.o)
                                0x137 (size before relaxing)
 .debug_str     0x00002c19       0x17 C:/Program Files/TeliumSDK/SDK 9.8.0/SDK/lib_gnu_434/dll_wifi.lib(wifi16.o)
                                0x11e (size before relaxing)
 .debug_str     0x00002c30       0x17 C:/Program Files/TeliumSDK/SDK 9.8.0/SDK/lib_gnu_434/dll_wifi.lib(wifi17.o)
                                0x13d (size before relaxing)
 .debug_str     0x00002c47       0x17 C:/Program Files/TeliumSDK/SDK 9.8.0/SDK/lib_gnu_434/dll_wifi.lib(wifi18.o)
                                0x118 (size before relaxing)
 .debug_str     0x00002c5e       0x17 C:/Program Files/TeliumSDK/SDK 9.8.0/SDK/lib_gnu_434/dll_wifi.lib(wifi19.o)
                                0x121 (size before relaxing)
 .debug_str     0x00002c75       0x17 C:/Program Files/TeliumSDK/SDK 9.8.0/SDK/lib_gnu_434/dll_wifi.lib(wifi20.o)
                                0x1ad (size before relaxing)
 .debug_str     0x00002c8c       0x17 C:/Program Files/TeliumSDK/SDK 9.8.0/SDK/lib_gnu_434/dll_wifi.lib(wifi21.o)
                                0x1ab (size before relaxing)
 .debug_str     0x00002ca3       0x17 C:/Program Files/TeliumSDK/SDK 9.8.0/SDK/lib_gnu_434/dll_wifi.lib(wifi22.o)
                                0x11b (size before relaxing)
 .debug_str     0x00002cba       0x17 C:/Program Files/TeliumSDK/SDK 9.8.0/SDK/lib_gnu_434/dll_wifi.lib(wifi23.o)
                                0x110 (size before relaxing)
 .debug_str     0x00002cd1       0x23 C:/Program Files/TeliumSDK/SDK 9.8.0/SDK/lib_gnu_434/dll_wifi.lib(wifi24.o)
                                0x1a9 (size before relaxing)
 .debug_str     0x00002cf4       0x17 C:/Program Files/TeliumSDK/SDK 9.8.0/SDK/lib_gnu_434/dll_wifi.lib(wifi25.o)
                                0x11b (size before relaxing)
 .debug_str     0x00002d0b       0x17 C:/Program Files/TeliumSDK/SDK 9.8.0/SDK/lib_gnu_434/dll_wifi.lib(wifi26.o)
                                0x114 (size before relaxing)
 .debug_str     0x00002d22       0x17 C:/Program Files/TeliumSDK/SDK 9.8.0/SDK/lib_gnu_434/dll_wifi.lib(wifi27.o)
                                0x112 (size before relaxing)
 .debug_str     0x00002d39       0x17 C:/Program Files/TeliumSDK/SDK 9.8.0/SDK/lib_gnu_434/dll_wifi.lib(wifi28.o)
                                0x112 (size before relaxing)
 .debug_str     0x00002d50       0x17 C:/Program Files/TeliumSDK/SDK 9.8.0/SDK/lib_gnu_434/dll_wifi.lib(wifi29.o)
                                0x116 (size before relaxing)
 .debug_str     0x00002d67       0x17 C:/Program Files/TeliumSDK/SDK 9.8.0/SDK/lib_gnu_434/dll_wifi.lib(wifi30.o)
                                0x11a (size before relaxing)
 .debug_str     0x00002d7e       0x17 C:/Program Files/TeliumSDK/SDK 9.8.0/SDK/lib_gnu_434/dll_wifi.lib(wifi31.o)
                                0x112 (size before relaxing)
 .debug_str     0x00002d95       0x17 C:/Program Files/TeliumSDK/SDK 9.8.0/SDK/lib_gnu_434/dll_wifi.lib(wifi32.o)
                                0x114 (size before relaxing)
 .debug_str     0x00002dac       0x17 C:/Program Files/TeliumSDK/SDK 9.8.0/SDK/lib_gnu_434/dll_wifi.lib(wifi33.o)
                                0x114 (size before relaxing)
 .debug_str     0x00002dc3       0x17 C:/Program Files/TeliumSDK/SDK 9.8.0/SDK/lib_gnu_434/dll_wifi.lib(wifi34.o)
                                0x123 (size before relaxing)
 .debug_str     0x00002dda       0x2c C:/Program Files/TeliumSDK/SDK 9.8.0/SDK/lib_gnu_434/dll_wifi.lib(wifi35.o)
                                0x117 (size before relaxing)
 .debug_str     0x00002e06       0xbb C:/Program Files/Ingenico/IngeDev_7/plugins/com.ingenico.ingedev.telium.bin.win32.gnuarm.v434_7.16.0.6/os/win32/GNUARM/4.3.4/arm-elf/lib/thumb/soft/interwork/libc.a(lib_a-memcmp.o)
                                0x157 (size before relaxing)
 .debug_str     0x00002ec1       0x64 C:/Program Files/Ingenico/IngeDev_7/plugins/com.ingenico.ingedev.telium.bin.win32.gnuarm.v434_7.16.0.6/os/win32/GNUARM/4.3.4/arm-elf/lib/thumb/soft/interwork/libc.a(lib_a-memcpy.o)
                                0x16b (size before relaxing)
 .debug_str     0x00002f25       0x64 C:/Program Files/Ingenico/IngeDev_7/plugins/com.ingenico.ingedev.telium.bin.win32.gnuarm.v434_7.16.0.6/os/win32/GNUARM/4.3.4/arm-elf/lib/thumb/soft/interwork/libc.a(lib_a-memmove.o)
                                0x172 (size before relaxing)
 .debug_str     0x00002f89       0x50 C:/Program Files/Ingenico/IngeDev_7/plugins/com.ingenico.ingedev.telium.bin.win32.gnuarm.v434_7.16.0.6/os/win32/GNUARM/4.3.4/arm-elf/lib/thumb/soft/interwork/libc.a(lib_a-memset.o)
                                0x157 (size before relaxing)
 .debug_str     0x00002fd9      0x45f C:/Program Files/Ingenico/IngeDev_7/plugins/com.ingenico.ingedev.telium.bin.win32.gnuarm.v434_7.16.0.6/os/win32/GNUARM/4.3.4/arm-elf/lib/thumb/soft/interwork/libc.a(lib_a-snprintf.o)
                                0x553 (size before relaxing)
 .debug_str     0x00003438       0x50 C:/Program Files/Ingenico/IngeDev_7/plugins/com.ingenico.ingedev.telium.bin.win32.gnuarm.v434_7.16.0.6/os/win32/GNUARM/4.3.4/arm-elf/lib/thumb/soft/interwork/libc.a(lib_a-strcat.o)
                                0x150 (size before relaxing)
 .debug_str     0x00003488       0x50 C:/Program Files/Ingenico/IngeDev_7/plugins/com.ingenico.ingedev.telium.bin.win32.gnuarm.v434_7.16.0.6/os/win32/GNUARM/4.3.4/arm-elf/lib/thumb/soft/interwork/libc.a(lib_a-strchr.o)
                                0x150 (size before relaxing)
 .debug_str     0x000034d8       0xc8 C:/Program Files/Ingenico/IngeDev_7/plugins/com.ingenico.ingedev.telium.bin.win32.gnuarm.v434_7.16.0.6/os/win32/GNUARM/4.3.4/arm-elf/lib/thumb/soft/interwork/libc.a(lib_a-strcmp.o)
                                0x15d (size before relaxing)
 .debug_str     0x000035a0       0x58 C:/Program Files/Ingenico/IngeDev_7/plugins/com.ingenico.ingedev.telium.bin.win32.gnuarm.v434_7.16.0.6/os/win32/GNUARM/4.3.4/arm-elf/lib/thumb/soft/interwork/libc.a(lib_a-strcpy.o)
                                0x15d (size before relaxing)
 .debug_str     0x000035f8       0x60 C:/Program Files/Ingenico/IngeDev_7/plugins/com.ingenico.ingedev.telium.bin.win32.gnuarm.v434_7.16.0.6/os/win32/GNUARM/4.3.4/arm-elf/lib/thumb/soft/interwork/libc.a(lib_a-strlen.o)
                                0x16c (size before relaxing)
 .debug_str     0x00003658       0x52 C:/Program Files/Ingenico/IngeDev_7/plugins/com.ingenico.ingedev.telium.bin.win32.gnuarm.v434_7.16.0.6/os/win32/GNUARM/4.3.4/arm-elf/lib/thumb/soft/interwork/libc.a(lib_a-strncat.o)
                                0x159 (size before relaxing)
 .debug_str     0x000036aa       0x5e C:/Program Files/Ingenico/IngeDev_7/plugins/com.ingenico.ingedev.telium.bin.win32.gnuarm.v434_7.16.0.6/os/win32/GNUARM/4.3.4/arm-elf/lib/thumb/soft/interwork/libc.a(lib_a-strncpy.o)
                                0x175 (size before relaxing)
 .debug_str     0x00003708       0x61 C:/Program Files/Ingenico/IngeDev_7/plugins/com.ingenico.ingedev.telium.bin.win32.gnuarm.v434_7.16.0.6/os/win32/GNUARM/4.3.4/arm-elf/lib/thumb/soft/interwork/libc.a(lib_a-strstr.o)
                                0x168 (size before relaxing)
 .debug_str     0x00003769       0x50 C:/Program Files/Ingenico/IngeDev_7/plugins/com.ingenico.ingedev.telium.bin.win32.gnuarm.v434_7.16.0.6/os/win32/GNUARM/4.3.4/arm-elf/lib/thumb/soft/interwork/libc.a(lib_a-strtok.o)
                                0x511 (size before relaxing)
 .debug_str     0x000037b9       0x7a C:/Program Files/Ingenico/IngeDev_7/plugins/com.ingenico.ingedev.telium.bin.win32.gnuarm.v434_7.16.0.6/os/win32/GNUARM/4.3.4/arm-elf/lib/thumb/soft/interwork/libc.a(lib_a-strtok_r.o)
                                0x189 (size before relaxing)
 .debug_str     0x00003833       0xf5 C:/Program Files/Ingenico/IngeDev_7/plugins/com.ingenico.ingedev.telium.bin.win32.gnuarm.v434_7.16.0.6/os/win32/GNUARM/4.3.4/arm-elf/lib/thumb/soft/interwork/libc.a(lib_a-strtoul.o)
                                0x54a (size before relaxing)
 .debug_str     0x00003928      0x18c C:/Program Files/Ingenico/IngeDev_7/plugins/com.ingenico.ingedev.telium.bin.win32.gnuarm.v434_7.16.0.6/os/win32/GNUARM/4.3.4/arm-elf/lib/thumb/soft/interwork/libc.a(lib_a-svfprintf.o)
                                0x6c9 (size before relaxing)
 .debug_str     0x00003ab4       0xba C:/Program Files/Ingenico/IngeDev_7/plugins/com.ingenico.ingedev.telium.bin.win32.gnuarm.v434_7.16.0.6/os/win32/GNUARM/4.3.4/arm-elf/lib/thumb/soft/interwork/libc.a(lib_a-ctype_.o)
                                 0xd9 (size before relaxing)
 .debug_str     0x00003b6e      0x110 C:/Program Files/Ingenico/IngeDev_7/plugins/com.ingenico.ingedev.telium.bin.win32.gnuarm.v434_7.16.0.6/os/win32/GNUARM/4.3.4/arm-elf/lib/thumb/soft/interwork/libc.a(lib_a-dtoa.o)
                                0x608 (size before relaxing)
 .debug_str     0x00003c7e       0xd1 C:/Program Files/Ingenico/IngeDev_7/plugins/com.ingenico.ingedev.telium.bin.win32.gnuarm.v434_7.16.0.6/os/win32/GNUARM/4.3.4/arm-elf/lib/thumb/soft/interwork/libc.a(lib_a-impure.o)
                                0x521 (size before relaxing)
 .debug_str     0x00003d4f      0x27b C:/Program Files/Ingenico/IngeDev_7/plugins/com.ingenico.ingedev.telium.bin.win32.gnuarm.v434_7.16.0.6/os/win32/GNUARM/4.3.4/arm-elf/lib/thumb/soft/interwork/libc.a(lib_a-locale.o)
                                0x763 (size before relaxing)
 .debug_str     0x00003fca       0x50 C:/Program Files/Ingenico/IngeDev_7/plugins/com.ingenico.ingedev.telium.bin.win32.gnuarm.v434_7.16.0.6/os/win32/GNUARM/4.3.4/arm-elf/lib/thumb/soft/interwork/libc.a(lib_a-memchr.o)
                                0x167 (size before relaxing)
 .debug_str     0x0000401a      0x106 C:/Program Files/Ingenico/IngeDev_7/plugins/com.ingenico.ingedev.telium.bin.win32.gnuarm.v434_7.16.0.6/os/win32/GNUARM/4.3.4/arm-elf/lib/thumb/soft/interwork/libc.a(lib_a-mprec.o)
                                0x615 (size before relaxing)
 .debug_str     0x00004120       0xea C:/Program Files/Ingenico/IngeDev_7/plugins/com.ingenico.ingedev.telium.bin.win32.gnuarm.v434_7.16.0.6/os/win32/GNUARM/4.3.4/arm-elf/lib/thumb/soft/interwork/libc.a(lib_a-s_fpclassify.o)
                                0x1a9 (size before relaxing)
 .debug_str     0x0000420a       0x29 C:/Program Files/Ingenico/IngeDev_7/plugins/com.ingenico.ingedev.telium.bin.win32.gnuarm.v434_7.16.0.6/os/win32/GNUARM/4.3.4/arm-elf/lib/thumb/soft/interwork/libc.a(lib_a-svfiprintf.o)
                                0x649 (size before relaxing)

.comment        0x00000000       0x23
 .comment       0x00000000       0x11 Obj/GNU_ARM_DEBUG/Backlight.o
                                 0x12 (size before relaxing)
 .comment       0x00000000       0x12 Obj/GNU_ARM_DEBUG/Boleto.o
 .comment       0x00000000       0x12 Obj/GNU_ARM_DEBUG/Conn.o
 .comment       0x00000000       0x12 Obj/GNU_ARM_DEBUG/Dialogs.o
 .comment       0x00000000       0x12 Obj/GNU_ARM_DEBUG/Entry.o
 .comment       0x00000000       0x12 Obj/GNU_ARM_DEBUG/File.o
 .comment       0x00000000       0x12 Obj/GNU_ARM_DEBUG/FTP.o
 .comment       0x00000000       0x12 Obj/GNU_ARM_DEBUG/GPRS.o
 .comment       0x00000000       0x12 Obj/GNU_ARM_DEBUG/HTTP.o
 .comment       0x00000000       0x12 Obj/GNU_ARM_DEBUG/Inicio.o
 .comment       0x00000000       0x12 Obj/GNU_ARM_DEBUG/Main.o
 .comment       0x00000000       0x12 Obj/GNU_ARM_DEBUG/Menus.o
 .comment       0x00000000       0x12 Obj/GNU_ARM_DEBUG/NTP.o
 .comment       0x00000000       0x12 Obj/GNU_ARM_DEBUG/Sistema.o
 .comment       0x00000000       0x12 Obj/GNU_ARM_DEBUG/Recarga.o
 .comment       0x00000000       0x12 C:/Program Files/TeliumSDK/SDK 9.8.0/SDK/lib_gnu_434/eft30.lib(atoi.o)
 .comment       0x00000000       0x12 C:/Program Files/TeliumSDK/SDK 9.8.0/SDK/lib_gnu_434/eft30.lib(extens119.o)
 .comment       0x00000000       0x12 C:/Program Files/TeliumSDK/SDK 9.8.0/SDK/lib_gnu_434/eft30.lib(extens134.o)
 .comment       0x00000000       0x12 C:/Program Files/TeliumSDK/SDK 9.8.0/SDK/lib_gnu_434/eft30.lib(extens201.o)
 .comment       0x00000000       0x12 C:/Program Files/TeliumSDK/SDK 9.8.0/SDK/lib_gnu_434/eft30.lib(extens232.o)
 .comment       0x00000000       0x12 C:/Program Files/TeliumSDK/SDK 9.8.0/SDK/lib_gnu_434/eft30.lib(extens54.o)
 .comment       0x00000000       0x12 C:/Program Files/TeliumSDK/SDK 9.8.0/SDK/lib_gnu_434/eft30.lib(param156.o)
 .comment       0x00000000       0x12 C:/Program Files/TeliumSDK/SDK 9.8.0/SDK/lib_gnu_434/eft30.lib(param17.o)
 .comment       0x00000000       0x12 C:/Program Files/TeliumSDK/SDK 9.8.0/SDK/lib_gnu_434/eft30.lib(param47.o)
 .comment       0x00000000       0x12 C:/Program Files/TeliumSDK/SDK 9.8.0/SDK/lib_gnu_434/eft30.lib(param81.o)
 .comment       0x00000000       0x12 C:/Program Files/TeliumSDK/SDK 9.8.0/SDK/lib_gnu_434/eft30.lib(saisie18.o)
 .comment       0x00000000       0x12 C:/Program Files/TeliumSDK/SDK 9.8.0/SDK/lib_gnu_434/eft30.lib(saisie6.o)
 .comment       0x00000000       0x12 C:/Program Files/TeliumSDK/SDK 9.8.0/SDK/lib_gnu_434/eft30.lib(saisie7.o)
 .comment       0x00000000       0x12 C:/Program Files/TeliumSDK/SDK 9.8.0/SDK/lib_gnu_434/eft30.lib(saisie8.o)
 .comment       0x00000000       0x12 C:/Program Files/TeliumSDK/SDK 9.8.0/SDK/lib_gnu_434/eft30.lib(saisie9.o)
 .comment       0x00000000       0x12 C:/Program Files/TeliumSDK/SDK 9.8.0/SDK/lib_gnu_434/eft30.lib(sv24.o)
 .comment       0x00000000       0x12 C:/Program Files/TeliumSDK/SDK 9.8.0/SDK/lib_gnu_434/eft30.lib(sv25.o)
 .comment       0x00000000       0x12 C:/Program Files/TeliumSDK/SDK 9.8.0/SDK/lib_gnu_434/eft30.lib(libgr110.o)
 .comment       0x00000000       0x12 C:/Program Files/TeliumSDK/SDK 9.8.0/SDK/lib_gnu_434/eft30.lib(libgr123.o)
 .comment       0x00000000       0x12 C:/Program Files/TeliumSDK/SDK 9.8.0/SDK/lib_gnu_434/eft30.lib(libgr137.o)
 .comment       0x00000000       0x12 C:/Program Files/TeliumSDK/SDK 9.8.0/SDK/lib_gnu_434/eft30.lib(libgr25.o)
 .comment       0x00000000       0x12 C:/Program Files/TeliumSDK/SDK 9.8.0/SDK/lib_gnu_434/eft30.lib(libgr3.o)
 .comment       0x00000000       0x12 C:/Program Files/TeliumSDK/SDK 9.8.0/SDK/lib_gnu_434/eft30.lib(libgr33.o)
 .comment       0x00000000       0x12 C:/Program Files/TeliumSDK/SDK 9.8.0/SDK/lib_gnu_434/eft30.lib(libgr35.o)
 .comment       0x00000000       0x12 C:/Program Files/TeliumSDK/SDK 9.8.0/SDK/lib_gnu_434/eft30.lib(libgr37.o)
 .comment       0x00000000       0x12 C:/Program Files/TeliumSDK/SDK 9.8.0/SDK/lib_gnu_434/eft30.lib(libgr41.o)
 .comment       0x00000000       0x12 C:/Program Files/TeliumSDK/SDK 9.8.0/SDK/lib_gnu_434/eft30.lib(libgr49.o)
 .comment       0x00000000       0x12 C:/Program Files/TeliumSDK/SDK 9.8.0/SDK/lib_gnu_434/eft30.lib(libgr50.o)
 .comment       0x00000000       0x12 C:/Program Files/TeliumSDK/SDK 9.8.0/SDK/lib_gnu_434/eft30.lib(libgr52.o)
 .comment       0x00000000       0x12 C:/Program Files/TeliumSDK/SDK 9.8.0/SDK/lib_gnu_434/eft30.lib(libgr7.o)
 .comment       0x00000000       0x12 C:/Program Files/TeliumSDK/SDK 9.8.0/SDK/lib_gnu_434/eft30.lib(libgr75.o)
 .comment       0x00000000       0x12 C:/Program Files/TeliumSDK/SDK 9.8.0/SDK/lib_gnu_434/eft30.lib(libgr81.o)
 .comment       0x00000000       0x12 C:/Program Files/TeliumSDK/SDK 9.8.0/SDK/lib_gnu_434/eft30.lib(libgr82.o)
 .comment       0x00000000       0x12 C:/Program Files/TeliumSDK/SDK 9.8.0/SDK/lib_gnu_434/eft30.lib(libgr83.o)
 .comment       0x00000000       0x12 C:/Program Files/TeliumSDK/SDK 9.8.0/SDK/lib_gnu_434/eft30.lib(Tools35.o)
 .comment       0x00000000       0x12 C:/Program Files/TeliumSDK/SDK 9.8.0/SDK/lib_gnu_434/eft30.lib(Tools36.o)
 .comment       0x00000000       0x12 C:/Program Files/TeliumSDK/SDK 9.8.0/SDK/lib_gnu_434/eft30.lib(gprs1.o)
 .comment       0x00000000       0x12 C:/Program Files/TeliumSDK/SDK 9.8.0/SDK/lib_gnu_434/eft30.lib(gprs11.o)
 .comment       0x00000000       0x12 C:/Program Files/TeliumSDK/SDK 9.8.0/SDK/lib_gnu_434/eft30.lib(gprs13.o)
 .comment       0x00000000       0x12 C:/Program Files/TeliumSDK/SDK 9.8.0/SDK/lib_gnu_434/eft30.lib(gprs15.o)
 .comment       0x00000000       0x12 C:/Program Files/TeliumSDK/SDK 9.8.0/SDK/lib_gnu_434/eft30.lib(gprs17.o)
 .comment       0x00000000       0x12 C:/Program Files/TeliumSDK/SDK 9.8.0/SDK/lib_gnu_434/eft30.lib(gprs19.o)
 .comment       0x00000000       0x12 C:/Program Files/TeliumSDK/SDK 9.8.0/SDK/lib_gnu_434/eft30.lib(gprs29.o)
 .comment       0x00000000       0x12 C:/Program Files/TeliumSDK/SDK 9.8.0/SDK/lib_gnu_434/eft30.lib(gprs32.o)
 .comment       0x00000000       0x12 C:/Program Files/TeliumSDK/SDK 9.8.0/SDK/lib_gnu_434/eft30.lib(hwcnf18.o)
 .comment       0x00000000       0x12 C:/Program Files/TeliumSDK/SDK 9.8.0/SDK/lib_gnu_434/eft30.lib(gprs_lib.o)
 .comment       0x00000000       0x12 C:/Program Files/TeliumSDK/SDK 9.8.0/SDK/lib_gnu_434/eft30.lib(LibAppli.o)
 .comment       0x00000000       0x12 C:/Program Files/TeliumSDK/SDK 9.8.0/SDK/lib_gnu_434/eft30.lib(ctype.o)
 .comment       0x00000000       0x12 C:/Program Files/TeliumSDK/SDK 9.8.0/SDK/lib_gnu_434/eft30.lib(extens.o)
 .comment       0x00000000       0x12 C:/Program Files/TeliumSDK/SDK 9.8.0/SDK/lib_gnu_434/eft30.lib(extens236.o)
 .comment       0x00000000       0x12 C:/Program Files/TeliumSDK/SDK 9.8.0/SDK/lib_gnu_434/eft30.lib(extens237.o)
 .comment       0x00000000       0x12 C:/Program Files/TeliumSDK/SDK 9.8.0/SDK/lib_gnu_434/eft30.lib(param.o)
 .comment       0x00000000       0x12 C:/Program Files/TeliumSDK/SDK 9.8.0/SDK/lib_gnu_434/eft30.lib(saisie.o)
 .comment       0x00000000       0x12 C:/Program Files/TeliumSDK/SDK 9.8.0/SDK/lib_gnu_434/eft30.lib(sv.o)
 .comment       0x00000000       0x12 C:/Program Files/TeliumSDK/SDK 9.8.0/SDK/lib_gnu_434/eft30.lib(libgr.o)
 .comment       0x00000000       0x12 C:/Program Files/TeliumSDK/SDK 9.8.0/SDK/lib_gnu_434/eft30.lib(Tools.o)
 .comment       0x00000000       0x12 C:/Program Files/TeliumSDK/SDK 9.8.0/SDK/lib_gnu_434/eft30.lib(gprs.o)
 .comment       0x00000000       0x12 C:/Program Files/TeliumSDK/SDK 9.8.0/SDK/lib_gnu_434/eft30.lib(hwcnf.o)
 .comment       0x00000000       0x12 C:/Program Files/TeliumSDK/SDK 9.8.0/SDK/lib_gnu_434/LinkLayerExeInterface.lib(LinkLayerServices.o)
 .comment       0x00000000       0x12 C:/Program Files/TeliumSDK/SDK 9.8.0/SDK/lib_gnu_434/FTP_.lib(FTP.o)
 .comment       0x00000000       0x12 C:/Program Files/TeliumSDK/SDK 9.8.0/SDK/lib_gnu_434/FTP_.lib(FTPC.o)
 .comment       0x00000000       0x12 C:/Program Files/TeliumSDK/SDK 9.8.0/SDK/lib_gnu_434/IP_.lib(IP.o)
 .comment       0x00000000       0x12 C:/Program Files/TeliumSDK/SDK 9.8.0/SDK/lib_gnu_434/IP_.lib(DNS.o)
 .comment       0x00000000       0x12 C:/Program Files/TeliumSDK/SDK 9.8.0/SDK/lib_gnu_434/IP_.lib(DefaultOptions.o)
 .comment       0x00000000       0x12 C:/Program Files/TeliumSDK/SDK 9.8.0/SDK/lib_gnu_434/IP_.lib(EthernetConfig.o)
 .comment       0x00000000       0x12 C:/Program Files/TeliumSDK/SDK 9.8.0/SDK/lib_gnu_434/IP_.lib(WifiConfig.o)
 .comment       0x00000011       0x12 C:/Program Files/TeliumSDK/SDK 9.8.0/SDK/lib_gnu_434/libcpatch.o
 .comment       0x00000000       0x12 C:/Program Files/TeliumSDK/SDK 9.8.0/SDK/lib_gnu_434/eft30.lib(extens280.o)
 .comment       0x00000000       0x12 C:/Program Files/TeliumSDK/SDK 9.8.0/SDK/lib_gnu_434/AVL.lib(Proxy.o)
 .comment       0x00000000       0x12 C:/Program Files/TeliumSDK/SDK 9.8.0/SDK/lib_gnu_434/AVL.lib(Serializer.o)
 .comment       0x00000000       0x12 C:/Program Files/TeliumSDK/SDK 9.8.0/SDK/lib_gnu_434/AVL.lib(Serializer_Default.o)
 .comment       0x00000000       0x12 C:/Program Files/TeliumSDK/SDK 9.8.0/SDK/lib_gnu_434/AVL.lib(Serializer_Xml.o)
 .comment       0x00000000       0x12 C:/Program Files/TeliumSDK/SDK 9.8.0/SDK/lib_gnu_434/AVL.lib(XMLs_ProcessData.o)
 .comment       0x00000000       0x12 C:/Program Files/TeliumSDK/SDK 9.8.0/SDK/lib_gnu_434/AVL.lib(XMLs_Common.o)
 .comment       0x00000000       0x12 C:/Program Files/TeliumSDK/SDK 9.8.0/SDK/lib_gnu_434/AVL.lib(XMLs_Deprecated.o)
 .comment       0x00000000       0x12 C:/Program Files/TeliumSDK/SDK 9.8.0/SDK/lib_gnu_434/AVL.lib(XMLs_Parser_Deprecated.o)
 .comment       0x00000000       0x12 C:/Program Files/TeliumSDK/SDK 9.8.0/SDK/lib_gnu_434/AVL.lib(Internal.o)
 .comment       0x00000000       0x12 C:/Program Files/TeliumSDK/SDK 9.8.0/SDK/lib_gnu_434/dll_wifi.lib(wifi.o)
 .comment       0x00000000       0x12 C:/Program Files/TeliumSDK/SDK 9.8.0/SDK/lib_gnu_434/dll_wifi.lib(wifi1.o)
 .comment       0x00000000       0x12 C:/Program Files/TeliumSDK/SDK 9.8.0/SDK/lib_gnu_434/dll_wifi.lib(wifi2.o)
 .comment       0x00000000       0x12 C:/Program Files/TeliumSDK/SDK 9.8.0/SDK/lib_gnu_434/dll_wifi.lib(wifi3.o)
 .comment       0x00000000       0x12 C:/Program Files/TeliumSDK/SDK 9.8.0/SDK/lib_gnu_434/dll_wifi.lib(wifi4.o)
 .comment       0x00000000       0x12 C:/Program Files/TeliumSDK/SDK 9.8.0/SDK/lib_gnu_434/dll_wifi.lib(wifi5.o)
 .comment       0x00000000       0x12 C:/Program Files/TeliumSDK/SDK 9.8.0/SDK/lib_gnu_434/dll_wifi.lib(wifi6.o)
 .comment       0x00000000       0x12 C:/Program Files/TeliumSDK/SDK 9.8.0/SDK/lib_gnu_434/dll_wifi.lib(wifi7.o)
 .comment       0x00000000       0x12 C:/Program Files/TeliumSDK/SDK 9.8.0/SDK/lib_gnu_434/dll_wifi.lib(wifi8.o)
 .comment       0x00000000       0x12 C:/Program Files/TeliumSDK/SDK 9.8.0/SDK/lib_gnu_434/dll_wifi.lib(wifi9.o)
 .comment       0x00000000       0x12 C:/Program Files/TeliumSDK/SDK 9.8.0/SDK/lib_gnu_434/dll_wifi.lib(wifi10.o)
 .comment       0x00000000       0x12 C:/Program Files/TeliumSDK/SDK 9.8.0/SDK/lib_gnu_434/dll_wifi.lib(wifi11.o)
 .comment       0x00000000       0x12 C:/Program Files/TeliumSDK/SDK 9.8.0/SDK/lib_gnu_434/dll_wifi.lib(wifi12.o)
 .comment       0x00000000       0x12 C:/Program Files/TeliumSDK/SDK 9.8.0/SDK/lib_gnu_434/dll_wifi.lib(wifi13.o)
 .comment       0x00000000       0x12 C:/Program Files/TeliumSDK/SDK 9.8.0/SDK/lib_gnu_434/dll_wifi.lib(wifi14.o)
 .comment       0x00000000       0x12 C:/Program Files/TeliumSDK/SDK 9.8.0/SDK/lib_gnu_434/dll_wifi.lib(wifi15.o)
 .comment       0x00000000       0x12 C:/Program Files/TeliumSDK/SDK 9.8.0/SDK/lib_gnu_434/dll_wifi.lib(wifi16.o)
 .comment       0x00000000       0x12 C:/Program Files/TeliumSDK/SDK 9.8.0/SDK/lib_gnu_434/dll_wifi.lib(wifi17.o)
 .comment       0x00000000       0x12 C:/Program Files/TeliumSDK/SDK 9.8.0/SDK/lib_gnu_434/dll_wifi.lib(wifi18.o)
 .comment       0x00000000       0x12 C:/Program Files/TeliumSDK/SDK 9.8.0/SDK/lib_gnu_434/dll_wifi.lib(wifi19.o)
 .comment       0x00000000       0x12 C:/Program Files/TeliumSDK/SDK 9.8.0/SDK/lib_gnu_434/dll_wifi.lib(wifi20.o)
 .comment       0x00000000       0x12 C:/Program Files/TeliumSDK/SDK 9.8.0/SDK/lib_gnu_434/dll_wifi.lib(wifi21.o)
 .comment       0x00000000       0x12 C:/Program Files/TeliumSDK/SDK 9.8.0/SDK/lib_gnu_434/dll_wifi.lib(wifi22.o)
 .comment       0x00000000       0x12 C:/Program Files/TeliumSDK/SDK 9.8.0/SDK/lib_gnu_434/dll_wifi.lib(wifi23.o)
 .comment       0x00000000       0x12 C:/Program Files/TeliumSDK/SDK 9.8.0/SDK/lib_gnu_434/dll_wifi.lib(wifi24.o)
 .comment       0x00000000       0x12 C:/Program Files/TeliumSDK/SDK 9.8.0/SDK/lib_gnu_434/dll_wifi.lib(wifi25.o)
 .comment       0x00000000       0x12 C:/Program Files/TeliumSDK/SDK 9.8.0/SDK/lib_gnu_434/dll_wifi.lib(wifi26.o)
 .comment       0x00000000       0x12 C:/Program Files/TeliumSDK/SDK 9.8.0/SDK/lib_gnu_434/dll_wifi.lib(wifi27.o)
 .comment       0x00000000       0x12 C:/Program Files/TeliumSDK/SDK 9.8.0/SDK/lib_gnu_434/dll_wifi.lib(wifi28.o)
 .comment       0x00000000       0x12 C:/Program Files/TeliumSDK/SDK 9.8.0/SDK/lib_gnu_434/dll_wifi.lib(wifi29.o)
 .comment       0x00000000       0x12 C:/Program Files/TeliumSDK/SDK 9.8.0/SDK/lib_gnu_434/dll_wifi.lib(wifi30.o)
 .comment       0x00000000       0x12 C:/Program Files/TeliumSDK/SDK 9.8.0/SDK/lib_gnu_434/dll_wifi.lib(wifi31.o)
 .comment       0x00000000       0x12 C:/Program Files/TeliumSDK/SDK 9.8.0/SDK/lib_gnu_434/dll_wifi.lib(wifi32.o)
 .comment       0x00000000       0x12 C:/Program Files/TeliumSDK/SDK 9.8.0/SDK/lib_gnu_434/dll_wifi.lib(wifi33.o)
 .comment       0x00000000       0x12 C:/Program Files/TeliumSDK/SDK 9.8.0/SDK/lib_gnu_434/dll_wifi.lib(wifi34.o)
 .comment       0x00000000       0x12 C:/Program Files/TeliumSDK/SDK 9.8.0/SDK/lib_gnu_434/dll_wifi.lib(wifi35.o)
 .comment       0x00000000       0x12 C:/Program Files/Ingenico/IngeDev_7/plugins/com.ingenico.ingedev.telium.bin.win32.gnuarm.v434_7.16.0.6/os/win32/GNUARM/4.3.4/arm-elf/lib/thumb/soft/interwork/libc.a(lib_a-memcmp.o)
 .comment       0x00000000       0x12 C:/Program Files/Ingenico/IngeDev_7/plugins/com.ingenico.ingedev.telium.bin.win32.gnuarm.v434_7.16.0.6/os/win32/GNUARM/4.3.4/arm-elf/lib/thumb/soft/interwork/libc.a(lib_a-memcpy.o)
 .comment       0x00000000       0x12 C:/Program Files/Ingenico/IngeDev_7/plugins/com.ingenico.ingedev.telium.bin.win32.gnuarm.v434_7.16.0.6/os/win32/GNUARM/4.3.4/arm-elf/lib/thumb/soft/interwork/libc.a(lib_a-memmove.o)
 .comment       0x00000000       0x12 C:/Program Files/Ingenico/IngeDev_7/plugins/com.ingenico.ingedev.telium.bin.win32.gnuarm.v434_7.16.0.6/os/win32/GNUARM/4.3.4/arm-elf/lib/thumb/soft/interwork/libc.a(lib_a-memset.o)
 .comment       0x00000000       0x12 C:/Program Files/Ingenico/IngeDev_7/plugins/com.ingenico.ingedev.telium.bin.win32.gnuarm.v434_7.16.0.6/os/win32/GNUARM/4.3.4/arm-elf/lib/thumb/soft/interwork/libc.a(lib_a-snprintf.o)
 .comment       0x00000000       0x12 C:/Program Files/Ingenico/IngeDev_7/plugins/com.ingenico.ingedev.telium.bin.win32.gnuarm.v434_7.16.0.6/os/win32/GNUARM/4.3.4/arm-elf/lib/thumb/soft/interwork/libc.a(lib_a-strcat.o)
 .comment       0x00000000       0x12 C:/Program Files/Ingenico/IngeDev_7/plugins/com.ingenico.ingedev.telium.bin.win32.gnuarm.v434_7.16.0.6/os/win32/GNUARM/4.3.4/arm-elf/lib/thumb/soft/interwork/libc.a(lib_a-strchr.o)
 .comment       0x00000000       0x12 C:/Program Files/Ingenico/IngeDev_7/plugins/com.ingenico.ingedev.telium.bin.win32.gnuarm.v434_7.16.0.6/os/win32/GNUARM/4.3.4/arm-elf/lib/thumb/soft/interwork/libc.a(lib_a-strcmp.o)
 .comment       0x00000000       0x12 C:/Program Files/Ingenico/IngeDev_7/plugins/com.ingenico.ingedev.telium.bin.win32.gnuarm.v434_7.16.0.6/os/win32/GNUARM/4.3.4/arm-elf/lib/thumb/soft/interwork/libc.a(lib_a-strcpy.o)
 .comment       0x00000000       0x12 C:/Program Files/Ingenico/IngeDev_7/plugins/com.ingenico.ingedev.telium.bin.win32.gnuarm.v434_7.16.0.6/os/win32/GNUARM/4.3.4/arm-elf/lib/thumb/soft/interwork/libc.a(lib_a-strlen.o)
 .comment       0x00000000       0x12 C:/Program Files/Ingenico/IngeDev_7/plugins/com.ingenico.ingedev.telium.bin.win32.gnuarm.v434_7.16.0.6/os/win32/GNUARM/4.3.4/arm-elf/lib/thumb/soft/interwork/libc.a(lib_a-strncat.o)
 .comment       0x00000000       0x12 C:/Program Files/Ingenico/IngeDev_7/plugins/com.ingenico.ingedev.telium.bin.win32.gnuarm.v434_7.16.0.6/os/win32/GNUARM/4.3.4/arm-elf/lib/thumb/soft/interwork/libc.a(lib_a-strncpy.o)
 .comment       0x00000000       0x12 C:/Program Files/Ingenico/IngeDev_7/plugins/com.ingenico.ingedev.telium.bin.win32.gnuarm.v434_7.16.0.6/os/win32/GNUARM/4.3.4/arm-elf/lib/thumb/soft/interwork/libc.a(lib_a-strstr.o)
 .comment       0x00000000       0x12 C:/Program Files/Ingenico/IngeDev_7/plugins/com.ingenico.ingedev.telium.bin.win32.gnuarm.v434_7.16.0.6/os/win32/GNUARM/4.3.4/arm-elf/lib/thumb/soft/interwork/libc.a(lib_a-strtok.o)
 .comment       0x00000000       0x12 C:/Program Files/Ingenico/IngeDev_7/plugins/com.ingenico.ingedev.telium.bin.win32.gnuarm.v434_7.16.0.6/os/win32/GNUARM/4.3.4/arm-elf/lib/thumb/soft/interwork/libc.a(lib_a-strtok_r.o)
 .comment       0x00000000       0x12 C:/Program Files/Ingenico/IngeDev_7/plugins/com.ingenico.ingedev.telium.bin.win32.gnuarm.v434_7.16.0.6/os/win32/GNUARM/4.3.4/arm-elf/lib/thumb/soft/interwork/libc.a(lib_a-strtoul.o)
 .comment       0x00000000       0x12 C:/Program Files/Ingenico/IngeDev_7/plugins/com.ingenico.ingedev.telium.bin.win32.gnuarm.v434_7.16.0.6/os/win32/GNUARM/4.3.4/arm-elf/lib/thumb/soft/interwork/libc.a(lib_a-svfprintf.o)
 .comment       0x00000000       0x12 C:/Program Files/Ingenico/IngeDev_7/plugins/com.ingenico.ingedev.telium.bin.win32.gnuarm.v434_7.16.0.6/os/win32/GNUARM/4.3.4/arm-elf/lib/thumb/soft/interwork/libc.a(lib_a-ctype_.o)
 .comment       0x00000000       0x12 C:/Program Files/Ingenico/IngeDev_7/plugins/com.ingenico.ingedev.telium.bin.win32.gnuarm.v434_7.16.0.6/os/win32/GNUARM/4.3.4/arm-elf/lib/thumb/soft/interwork/libc.a(lib_a-dtoa.o)
 .comment       0x00000000       0x12 C:/Program Files/Ingenico/IngeDev_7/plugins/com.ingenico.ingedev.telium.bin.win32.gnuarm.v434_7.16.0.6/os/win32/GNUARM/4.3.4/arm-elf/lib/thumb/soft/interwork/libc.a(lib_a-impure.o)
 .comment       0x00000000       0x12 C:/Program Files/Ingenico/IngeDev_7/plugins/com.ingenico.ingedev.telium.bin.win32.gnuarm.v434_7.16.0.6/os/win32/GNUARM/4.3.4/arm-elf/lib/thumb/soft/interwork/libc.a(lib_a-locale.o)
 .comment       0x00000000       0x12 C:/Program Files/Ingenico/IngeDev_7/plugins/com.ingenico.ingedev.telium.bin.win32.gnuarm.v434_7.16.0.6/os/win32/GNUARM/4.3.4/arm-elf/lib/thumb/soft/interwork/libc.a(lib_a-memchr.o)
 .comment       0x00000000       0x12 C:/Program Files/Ingenico/IngeDev_7/plugins/com.ingenico.ingedev.telium.bin.win32.gnuarm.v434_7.16.0.6/os/win32/GNUARM/4.3.4/arm-elf/lib/thumb/soft/interwork/libc.a(lib_a-mprec.o)
 .comment       0x00000000       0x12 C:/Program Files/Ingenico/IngeDev_7/plugins/com.ingenico.ingedev.telium.bin.win32.gnuarm.v434_7.16.0.6/os/win32/GNUARM/4.3.4/arm-elf/lib/thumb/soft/interwork/libc.a(lib_a-s_fpclassify.o)
 .comment       0x00000000       0x12 C:/Program Files/Ingenico/IngeDev_7/plugins/com.ingenico.ingedev.telium.bin.win32.gnuarm.v434_7.16.0.6/os/win32/GNUARM/4.3.4/arm-elf/lib/thumb/soft/interwork/libc.a(lib_a-svfiprintf.o)

.ARM.attributes
                0x00000000       0x10
 .ARM.attributes
                0x00000000       0x10 Obj/GNU_ARM_DEBUG/Backlight.o
 .ARM.attributes
                0x00000010       0x10 Obj/GNU_ARM_DEBUG/Boleto.o
 .ARM.attributes
                0x00000020       0x10 Obj/GNU_ARM_DEBUG/Conn.o
 .ARM.attributes
                0x00000030       0x10 Obj/GNU_ARM_DEBUG/Dialogs.o
 .ARM.attributes
                0x00000040       0x10 Obj/GNU_ARM_DEBUG/Entry.o
 .ARM.attributes
                0x00000050       0x10 Obj/GNU_ARM_DEBUG/File.o
 .ARM.attributes
                0x00000060       0x10 Obj/GNU_ARM_DEBUG/FTP.o
 .ARM.attributes
                0x00000070       0x10 Obj/GNU_ARM_DEBUG/GPRS.o
 .ARM.attributes
                0x00000080       0x10 Obj/GNU_ARM_DEBUG/HTTP.o
 .ARM.attributes
                0x00000090       0x10 Obj/GNU_ARM_DEBUG/Inicio.o
 .ARM.attributes
                0x000000a0       0x10 Obj/GNU_ARM_DEBUG/Main.o
 .ARM.attributes
                0x000000b0       0x10 Obj/GNU_ARM_DEBUG/Menus.o
 .ARM.attributes
                0x000000c0       0x10 Obj/GNU_ARM_DEBUG/NTP.o
 .ARM.attributes
                0x000000d0       0x10 Obj/GNU_ARM_DEBUG/Sistema.o
 .ARM.attributes
                0x000000e0       0x10 Obj/GNU_ARM_DEBUG/Recarga.o
 .ARM.attributes
                0x000000f0       0x10 C:/Program Files/TeliumSDK/SDK 9.8.0/SDK/lib_gnu_434/eft30.lib(atoi.o)
 .ARM.attributes
                0x00000100       0x10 C:/Program Files/TeliumSDK/SDK 9.8.0/SDK/lib_gnu_434/eft30.lib(extens119.o)
 .ARM.attributes
                0x00000110       0x10 C:/Program Files/TeliumSDK/SDK 9.8.0/SDK/lib_gnu_434/eft30.lib(extens134.o)
 .ARM.attributes
                0x00000120       0x10 C:/Program Files/TeliumSDK/SDK 9.8.0/SDK/lib_gnu_434/eft30.lib(extens201.o)
 .ARM.attributes
                0x00000130       0x10 C:/Program Files/TeliumSDK/SDK 9.8.0/SDK/lib_gnu_434/eft30.lib(extens232.o)
 .ARM.attributes
                0x00000140       0x10 C:/Program Files/TeliumSDK/SDK 9.8.0/SDK/lib_gnu_434/eft30.lib(extens54.o)
 .ARM.attributes
                0x00000150       0x10 C:/Program Files/TeliumSDK/SDK 9.8.0/SDK/lib_gnu_434/eft30.lib(param156.o)
 .ARM.attributes
                0x00000160       0x10 C:/Program Files/TeliumSDK/SDK 9.8.0/SDK/lib_gnu_434/eft30.lib(param17.o)
 .ARM.attributes
                0x00000170       0x10 C:/Program Files/TeliumSDK/SDK 9.8.0/SDK/lib_gnu_434/eft30.lib(param47.o)
 .ARM.attributes
                0x00000180       0x10 C:/Program Files/TeliumSDK/SDK 9.8.0/SDK/lib_gnu_434/eft30.lib(param81.o)
 .ARM.attributes
                0x00000190       0x10 C:/Program Files/TeliumSDK/SDK 9.8.0/SDK/lib_gnu_434/eft30.lib(saisie18.o)
 .ARM.attributes
                0x000001a0       0x10 C:/Program Files/TeliumSDK/SDK 9.8.0/SDK/lib_gnu_434/eft30.lib(saisie6.o)
 .ARM.attributes
                0x000001b0       0x10 C:/Program Files/TeliumSDK/SDK 9.8.0/SDK/lib_gnu_434/eft30.lib(saisie7.o)
 .ARM.attributes
                0x000001c0       0x10 C:/Program Files/TeliumSDK/SDK 9.8.0/SDK/lib_gnu_434/eft30.lib(saisie8.o)
 .ARM.attributes
                0x000001d0       0x10 C:/Program Files/TeliumSDK/SDK 9.8.0/SDK/lib_gnu_434/eft30.lib(saisie9.o)
 .ARM.attributes
                0x000001e0       0x10 C:/Program Files/TeliumSDK/SDK 9.8.0/SDK/lib_gnu_434/eft30.lib(sv24.o)
 .ARM.attributes
                0x000001f0       0x10 C:/Program Files/TeliumSDK/SDK 9.8.0/SDK/lib_gnu_434/eft30.lib(sv25.o)
 .ARM.attributes
                0x00000200       0x10 C:/Program Files/TeliumSDK/SDK 9.8.0/SDK/lib_gnu_434/eft30.lib(libgr110.o)
 .ARM.attributes
                0x00000210       0x10 C:/Program Files/TeliumSDK/SDK 9.8.0/SDK/lib_gnu_434/eft30.lib(libgr123.o)
 .ARM.attributes
                0x00000220       0x10 C:/Program Files/TeliumSDK/SDK 9.8.0/SDK/lib_gnu_434/eft30.lib(libgr137.o)
 .ARM.attributes
                0x00000230       0x10 C:/Program Files/TeliumSDK/SDK 9.8.0/SDK/lib_gnu_434/eft30.lib(libgr25.o)
 .ARM.attributes
                0x00000240       0x10 C:/Program Files/TeliumSDK/SDK 9.8.0/SDK/lib_gnu_434/eft30.lib(libgr3.o)
 .ARM.attributes
                0x00000250       0x10 C:/Program Files/TeliumSDK/SDK 9.8.0/SDK/lib_gnu_434/eft30.lib(libgr33.o)
 .ARM.attributes
                0x00000260       0x10 C:/Program Files/TeliumSDK/SDK 9.8.0/SDK/lib_gnu_434/eft30.lib(libgr35.o)
 .ARM.attributes
                0x00000270       0x10 C:/Program Files/TeliumSDK/SDK 9.8.0/SDK/lib_gnu_434/eft30.lib(libgr37.o)
 .ARM.attributes
                0x00000280       0x10 C:/Program Files/TeliumSDK/SDK 9.8.0/SDK/lib_gnu_434/eft30.lib(libgr41.o)
 .ARM.attributes
                0x00000290       0x10 C:/Program Files/TeliumSDK/SDK 9.8.0/SDK/lib_gnu_434/eft30.lib(libgr49.o)
 .ARM.attributes
                0x000002a0       0x10 C:/Program Files/TeliumSDK/SDK 9.8.0/SDK/lib_gnu_434/eft30.lib(libgr50.o)
 .ARM.attributes
                0x000002b0       0x10 C:/Program Files/TeliumSDK/SDK 9.8.0/SDK/lib_gnu_434/eft30.lib(libgr52.o)
 .ARM.attributes
                0x000002c0       0x10 C:/Program Files/TeliumSDK/SDK 9.8.0/SDK/lib_gnu_434/eft30.lib(libgr7.o)
 .ARM.attributes
                0x000002d0       0x10 C:/Program Files/TeliumSDK/SDK 9.8.0/SDK/lib_gnu_434/eft30.lib(libgr75.o)
 .ARM.attributes
                0x000002e0       0x10 C:/Program Files/TeliumSDK/SDK 9.8.0/SDK/lib_gnu_434/eft30.lib(libgr81.o)
 .ARM.attributes
                0x000002f0       0x10 C:/Program Files/TeliumSDK/SDK 9.8.0/SDK/lib_gnu_434/eft30.lib(libgr82.o)
 .ARM.attributes
                0x00000300       0x10 C:/Program Files/TeliumSDK/SDK 9.8.0/SDK/lib_gnu_434/eft30.lib(libgr83.o)
 .ARM.attributes
                0x00000310       0x10 C:/Program Files/TeliumSDK/SDK 9.8.0/SDK/lib_gnu_434/eft30.lib(Tools35.o)
 .ARM.attributes
                0x00000320       0x10 C:/Program Files/TeliumSDK/SDK 9.8.0/SDK/lib_gnu_434/eft30.lib(Tools36.o)
 .ARM.attributes
                0x00000330       0x10 C:/Program Files/TeliumSDK/SDK 9.8.0/SDK/lib_gnu_434/eft30.lib(gprs1.o)
 .ARM.attributes
                0x00000340       0x10 C:/Program Files/TeliumSDK/SDK 9.8.0/SDK/lib_gnu_434/eft30.lib(gprs11.o)
 .ARM.attributes
                0x00000350       0x10 C:/Program Files/TeliumSDK/SDK 9.8.0/SDK/lib_gnu_434/eft30.lib(gprs13.o)
 .ARM.attributes
                0x00000360       0x10 C:/Program Files/TeliumSDK/SDK 9.8.0/SDK/lib_gnu_434/eft30.lib(gprs15.o)
 .ARM.attributes
                0x00000370       0x10 C:/Program Files/TeliumSDK/SDK 9.8.0/SDK/lib_gnu_434/eft30.lib(gprs17.o)
 .ARM.attributes
                0x00000380       0x10 C:/Program Files/TeliumSDK/SDK 9.8.0/SDK/lib_gnu_434/eft30.lib(gprs19.o)
 .ARM.attributes
                0x00000390       0x10 C:/Program Files/TeliumSDK/SDK 9.8.0/SDK/lib_gnu_434/eft30.lib(gprs29.o)
 .ARM.attributes
                0x000003a0       0x10 C:/Program Files/TeliumSDK/SDK 9.8.0/SDK/lib_gnu_434/eft30.lib(gprs32.o)
 .ARM.attributes
                0x000003b0       0x10 C:/Program Files/TeliumSDK/SDK 9.8.0/SDK/lib_gnu_434/eft30.lib(hwcnf18.o)
 .ARM.attributes
                0x000003c0       0x10 C:/Program Files/TeliumSDK/SDK 9.8.0/SDK/lib_gnu_434/eft30.lib(gprs_lib.o)
 .ARM.attributes
                0x000003d0       0x10 C:/Program Files/TeliumSDK/SDK 9.8.0/SDK/lib_gnu_434/eft30.lib(LibAppli.o)
 .ARM.attributes
                0x000003e0       0x10 C:/Program Files/TeliumSDK/SDK 9.8.0/SDK/lib_gnu_434/eft30.lib(ctype.o)
 .ARM.attributes
                0x000003f0       0x10 C:/Program Files/TeliumSDK/SDK 9.8.0/SDK/lib_gnu_434/eft30.lib(extens.o)
 .ARM.attributes
                0x00000400       0x10 C:/Program Files/TeliumSDK/SDK 9.8.0/SDK/lib_gnu_434/eft30.lib(extens236.o)
 .ARM.attributes
                0x00000410       0x10 C:/Program Files/TeliumSDK/SDK 9.8.0/SDK/lib_gnu_434/eft30.lib(extens237.o)
 .ARM.attributes
                0x00000420       0x10 C:/Program Files/TeliumSDK/SDK 9.8.0/SDK/lib_gnu_434/eft30.lib(param.o)
 .ARM.attributes
                0x00000430       0x10 C:/Program Files/TeliumSDK/SDK 9.8.0/SDK/lib_gnu_434/eft30.lib(saisie.o)
 .ARM.attributes
                0x00000440       0x10 C:/Program Files/TeliumSDK/SDK 9.8.0/SDK/lib_gnu_434/eft30.lib(sv.o)
 .ARM.attributes
                0x00000450       0x10 C:/Program Files/TeliumSDK/SDK 9.8.0/SDK/lib_gnu_434/eft30.lib(libgr.o)
 .ARM.attributes
                0x00000460       0x10 C:/Program Files/TeliumSDK/SDK 9.8.0/SDK/lib_gnu_434/eft30.lib(Tools.o)
 .ARM.attributes
                0x00000470       0x10 C:/Program Files/TeliumSDK/SDK 9.8.0/SDK/lib_gnu_434/eft30.lib(gprs.o)
 .ARM.attributes
                0x00000480       0x10 C:/Program Files/TeliumSDK/SDK 9.8.0/SDK/lib_gnu_434/eft30.lib(hwcnf.o)
 .ARM.attributes
                0x00000490       0x10 C:/Program Files/TeliumSDK/SDK 9.8.0/SDK/lib_gnu_434/trap.lib(trap_1302___STDOUT.o)
 .ARM.attributes
                0x000004a0       0x10 C:/Program Files/TeliumSDK/SDK 9.8.0/SDK/lib_gnu_434/trap.lib(trap_1313_fclose.o)
 .ARM.attributes
                0x000004b0       0x10 C:/Program Files/TeliumSDK/SDK 9.8.0/SDK/lib_gnu_434/trap.lib(trap_1314_fopen.o)
 .ARM.attributes
                0x000004c0       0x10 C:/Program Files/TeliumSDK/SDK 9.8.0/SDK/lib_gnu_434/trap.lib(trap_1319_getc.o)
 .ARM.attributes
                0x000004d0       0x10 C:/Program Files/TeliumSDK/SDK 9.8.0/SDK/lib_gnu_434/trap.lib(trap_131B___STDIN.o)
 .ARM.attributes
                0x000004e0       0x10 C:/Program Files/TeliumSDK/SDK 9.8.0/SDK/lib_gnu_434/trap.lib(trap_131E_status.o)
 .ARM.attributes
                0x000004f0       0x10 C:/Program Files/TeliumSDK/SDK 9.8.0/SDK/lib_gnu_434/trap.lib(trap_1323__vfprintf.o)
 .ARM.attributes
                0x00000500       0x10 C:/Program Files/TeliumSDK/SDK 9.8.0/SDK/lib_gnu_434/trap.lib(trap_1324_vsprintf.o)
 .ARM.attributes
                0x00000510       0x10 C:/Program Files/TeliumSDK/SDK 9.8.0/SDK/lib_gnu_434/trap.lib(trap_1328_putc.o)
 .ARM.attributes
                0x00000520       0x10 C:/Program Files/TeliumSDK/SDK 9.8.0/SDK/lib_gnu_434/trap.lib(trap_1329_ttestall.o)
 .ARM.attributes
                0x00000530       0x10 C:/Program Files/TeliumSDK/SDK 9.8.0/SDK/lib_gnu_434/trap.lib(trap_132C_FormatOem.o)
 .ARM.attributes
                0x00000540       0x10 C:/Program Files/TeliumSDK/SDK 9.8.0/SDK/lib_gnu_434/trap.lib(trap_1348_ObjectGetInfo.o)
 .ARM.attributes
                0x00000550       0x10 C:/Program Files/TeliumSDK/SDK 9.8.0/SDK/lib_gnu_434/trap.lib(trap_1349_ObjectLoad.o)
 .ARM.attributes
                0x00000560       0x10 C:/Program Files/TeliumSDK/SDK 9.8.0/SDK/lib_gnu_434/trap.lib(trap_134B_FreeSpace.o)
 .ARM.attributes
                0x00000570       0x10 C:/Program Files/TeliumSDK/SDK 9.8.0/SDK/lib_gnu_434/trap.lib(trap_134D_ServiceRegister.o)
 .ARM.attributes
                0x00000580       0x10 C:/Program Files/TeliumSDK/SDK 9.8.0/SDK/lib_gnu_434/trap.lib(trap_1350_DllLink.o)
 .ARM.attributes
                0x00000590       0x10 C:/Program Files/TeliumSDK/SDK 9.8.0/SDK/lib_gnu_434/trap.lib(trap_1352_DllUnlink.o)
 .ARM.attributes
                0x000005a0       0x10 C:/Program Files/TeliumSDK/SDK 9.8.0/SDK/lib_gnu_434/trap.lib(trap_1356_stdperif.o)
 .ARM.attributes
                0x000005b0       0x10 C:/Program Files/TeliumSDK/SDK 9.8.0/SDK/lib_gnu_434/trap.lib(trap_1375_download.o)
 .ARM.attributes
                0x000005c0       0x10 C:/Program Files/TeliumSDK/SDK 9.8.0/SDK/lib_gnu_434/trap.lib(trap_1378_OEM_exit.o)
 .ARM.attributes
                0x000005d0       0x10 C:/Program Files/TeliumSDK/SDK 9.8.0/SDK/lib_gnu_434/trap.lib(trap_137B_is_iso2.o)
 .ARM.attributes
                0x000005e0       0x10 C:/Program Files/TeliumSDK/SDK 9.8.0/SDK/lib_gnu_434/trap.lib(trap_1386_upload_diagnostic_txt.o)
 .ARM.attributes
                0x000005f0       0x10 C:/Program Files/TeliumSDK/SDK 9.8.0/SDK/lib_gnu_434/trap.lib(trap_138B_FS_dskcreate.o)
 .ARM.attributes
                0x00000600       0x10 C:/Program Files/TeliumSDK/SDK 9.8.0/SDK/lib_gnu_434/trap.lib(trap_138C_FS_dskkill.o)
 .ARM.attributes
                0x00000610       0x10 C:/Program Files/TeliumSDK/SDK 9.8.0/SDK/lib_gnu_434/trap.lib(trap_138D_FS_mount.o)
 .ARM.attributes
                0x00000620       0x10 C:/Program Files/TeliumSDK/SDK 9.8.0/SDK/lib_gnu_434/trap.lib(trap_138E_FS_unmount.o)
 .ARM.attributes
                0x00000630       0x10 C:/Program Files/TeliumSDK/SDK 9.8.0/SDK/lib_gnu_434/trap.lib(trap_1399_FS_unlink.o)
 .ARM.attributes
                0x00000640       0x10 C:/Program Files/TeliumSDK/SDK 9.8.0/SDK/lib_gnu_434/trap.lib(trap_139B_FS_open.o)
 .ARM.attributes
                0x00000650       0x10 C:/Program Files/TeliumSDK/SDK 9.8.0/SDK/lib_gnu_434/trap.lib(trap_139C_FS_close.o)
 .ARM.attributes
                0x00000660       0x10 C:/Program Files/TeliumSDK/SDK 9.8.0/SDK/lib_gnu_434/trap.lib(trap_139D_FS_read.o)
 .ARM.attributes
                0x00000670       0x10 C:/Program Files/TeliumSDK/SDK 9.8.0/SDK/lib_gnu_434/trap.lib(trap_139E_FS_write.o)
 .ARM.attributes
                0x00000680       0x10 C:/Program Files/TeliumSDK/SDK 9.8.0/SDK/lib_gnu_434/trap.lib(trap_13A1_FS_length.o)
 .ARM.attributes
                0x00000690       0x10 C:/Program Files/TeliumSDK/SDK 9.8.0/SDK/lib_gnu_434/trap.lib(trap_13AB_first_init.o)
 .ARM.attributes
                0x000006a0       0x10 C:/Program Files/TeliumSDK/SDK 9.8.0/SDK/lib_gnu_434/trap.lib(trap_13AD_raz_init.o)
 .ARM.attributes
                0x000006b0       0x10 C:/Program Files/TeliumSDK/SDK 9.8.0/SDK/lib_gnu_434/trap.lib(trap_13B2_ApplicationGetCurrent.o)
 .ARM.attributes
                0x000006c0       0x10 C:/Program Files/TeliumSDK/SDK 9.8.0/SDK/lib_gnu_434/trap.lib(trap_13C2_InitGkDrv.o)
 .ARM.attributes
                0x000006d0       0x10 C:/Program Files/TeliumSDK/SDK 9.8.0/SDK/lib_gnu_434/trap.lib(trap_13C4_SoftwareActivate.o)
 .ARM.attributes
                0x000006e0       0x10 C:/Program Files/TeliumSDK/SDK 9.8.0/SDK/lib_gnu_434/trap.lib(trap_13CE_closesocket.o)
 .ARM.attributes
                0x000006f0       0x10 C:/Program Files/TeliumSDK/SDK 9.8.0/SDK/lib_gnu_434/trap.lib(trap_13CF_connect.o)
 .ARM.attributes
                0x00000700       0x10 C:/Program Files/TeliumSDK/SDK 9.8.0/SDK/lib_gnu_434/trap.lib(trap_13D7_socket.o)
 .ARM.attributes
                0x00000710       0x10 C:/Program Files/TeliumSDK/SDK 9.8.0/SDK/lib_gnu_434/trap.lib(trap_1406_umalloc.o)
 .ARM.attributes
                0x00000720       0x10 C:/Program Files/TeliumSDK/SDK 9.8.0/SDK/lib_gnu_434/trap.lib(trap_1407_ufree.o)
 .ARM.attributes
                0x00000730       0x10 C:/Program Files/TeliumSDK/SDK 9.8.0/SDK/lib_gnu_434/trap.lib(trap_1414_fioctl.o)
 .ARM.attributes
                0x00000740       0x10 C:/Program Files/TeliumSDK/SDK 9.8.0/SDK/lib_gnu_434/trap.lib(trap_142A_urealloc.o)
 .ARM.attributes
                0x00000750       0x10 C:/Program Files/TeliumSDK/SDK 9.8.0/SDK/lib_gnu_434/trap.lib(trap_1432_SystemFioctl.o)
 .ARM.attributes
                0x00000760       0x10 C:/Program Files/TeliumSDK/SDK 9.8.0/SDK/lib_gnu_434/LinkLayerExeInterface.lib(LinkLayerServices.o)
 .ARM.attributes
                0x00000770       0x10 C:/Program Files/TeliumSDK/SDK 9.8.0/SDK/lib_gnu_434/FTP_.lib(FTP.o)
 .ARM.attributes
                0x00000780       0x10 C:/Program Files/TeliumSDK/SDK 9.8.0/SDK/lib_gnu_434/FTP_.lib(FTPC.o)
 .ARM.attributes
                0x00000790       0x10 C:/Program Files/TeliumSDK/SDK 9.8.0/SDK/lib_gnu_434/IP_.lib(IP.o)
 .ARM.attributes
                0x000007a0       0x10 C:/Program Files/TeliumSDK/SDK 9.8.0/SDK/lib_gnu_434/IP_.lib(DNS.o)
 .ARM.attributes
                0x000007b0       0x10 C:/Program Files/TeliumSDK/SDK 9.8.0/SDK/lib_gnu_434/IP_.lib(DefaultOptions.o)
 .ARM.attributes
                0x000007c0       0x10 C:/Program Files/TeliumSDK/SDK 9.8.0/SDK/lib_gnu_434/IP_.lib(EthernetConfig.o)
 .ARM.attributes
                0x000007d0       0x10 C:/Program Files/TeliumSDK/SDK 9.8.0/SDK/lib_gnu_434/IP_.lib(WifiConfig.o)
 .ARM.attributes
                0x000007e0       0x10 C:/Program Files/TeliumSDK/SDK 9.8.0/SDK/lib_gnu_434/eft30.lib(extens280.o)
 .ARM.attributes
                0x000007f0       0x10 C:/Program Files/TeliumSDK/SDK 9.8.0/SDK/lib_gnu_434/trap.lib(trap_13D8_inet_addr.o)
 .ARM.attributes
                0x00000800       0x10 C:/Program Files/TeliumSDK/SDK 9.8.0/SDK/lib_gnu_434/trap.lib(trap_13DC_PppSetOption.o)
 .ARM.attributes
                0x00000810       0x10 C:/Program Files/TeliumSDK/SDK 9.8.0/SDK/lib_gnu_434/trap.lib(trap_13E1_fcntlsocketSWI.o)
 .ARM.attributes
                0x00000820       0x10 C:/Program Files/TeliumSDK/SDK 9.8.0/SDK/lib_gnu_434/trap.lib(trap_13E2_getsockoptSWI.o)
 .ARM.attributes
                0x00000830       0x10 C:/Program Files/TeliumSDK/SDK 9.8.0/SDK/lib_gnu_434/trap.lib(trap_13E3_recvfromSWI.o)
 .ARM.attributes
                0x00000840       0x10 C:/Program Files/TeliumSDK/SDK 9.8.0/SDK/lib_gnu_434/trap.lib(trap_13E4_selectsocketSWI.o)
 .ARM.attributes
                0x00000850       0x10 C:/Program Files/TeliumSDK/SDK 9.8.0/SDK/lib_gnu_434/trap.lib(trap_13E5_sendtoSWI.o)
 .ARM.attributes
                0x00000860       0x10 C:/Program Files/TeliumSDK/SDK 9.8.0/SDK/lib_gnu_434/trap.lib(trap_13E6_setsockoptSWI.o)
 .ARM.attributes
                0x00000870       0x10 C:/Program Files/TeliumSDK/SDK 9.8.0/SDK/lib_gnu_434/trap.lib(trap_13E7_ngOSGetErrno.o)
 .ARM.attributes
                0x00000880       0x10 C:/Program Files/TeliumSDK/SDK 9.8.0/SDK/lib_gnu_434/trap.lib(trap_13E8_ngOSSetErrno.o)
 .ARM.attributes
                0x00000890       0x10 C:/Program Files/TeliumSDK/SDK 9.8.0/SDK/lib_gnu_434/trap.lib(trap_13E9_ngResolvSetOption.o)
 .ARM.attributes
                0x000008a0       0x10 C:/Program Files/TeliumSDK/SDK 9.8.0/SDK/lib_gnu_434/trap.lib(trap_13EA_ngResolvGetOption.o)
 .ARM.attributes
                0x000008b0       0x10 C:/Program Files/TeliumSDK/SDK 9.8.0/SDK/lib_gnu_434/trap.lib(trap_13ED_gethostbyaddr_rSWI.o)
 .ARM.attributes
                0x000008c0       0x10 C:/Program Files/TeliumSDK/SDK 9.8.0/SDK/lib_gnu_434/trap.lib(trap_13EE_gethostbyname_rSWI.o)
 .ARM.attributes
                0x000008d0       0x10 C:/Program Files/TeliumSDK/SDK 9.8.0/SDK/lib_gnu_434/trap.lib(trap_141D_ngRouteAdd.o)
 .ARM.attributes
                0x000008e0       0x10 C:/Program Files/TeliumSDK/SDK 9.8.0/SDK/lib_gnu_434/trap.lib(trap_141E_ngRouteDelete.o)
 .ARM.attributes
                0x000008f0       0x10 C:/Program Files/TeliumSDK/SDK 9.8.0/SDK/lib_gnu_434/trap.lib(trap_141F_ngRouteDefault.o)
 .ARM.attributes
                0x00000900       0x10 C:/Program Files/TeliumSDK/SDK 9.8.0/SDK/lib_gnu_434/trap.lib(trap_1426_get_tick_counter.o)
 .ARM.attributes
                0x00000910       0x10 C:/Program Files/TeliumSDK/SDK 9.8.0/SDK/lib_gnu_434/trap.lib(trap_142B_EthIfControl.o)
 .ARM.attributes
                0x00000920       0x10 C:/Program Files/TeliumSDK/SDK 9.8.0/SDK/lib_gnu_434/AVL.lib(Proxy.o)
 .ARM.attributes
                0x00000930       0x10 C:/Program Files/TeliumSDK/SDK 9.8.0/SDK/lib_gnu_434/AVL.lib(Serializer.o)
 .ARM.attributes
                0x00000940       0x10 C:/Program Files/TeliumSDK/SDK 9.8.0/SDK/lib_gnu_434/AVL.lib(Serializer_Default.o)
 .ARM.attributes
                0x00000950       0x10 C:/Program Files/TeliumSDK/SDK 9.8.0/SDK/lib_gnu_434/AVL.lib(Serializer_Xml.o)
 .ARM.attributes
                0x00000960       0x10 C:/Program Files/TeliumSDK/SDK 9.8.0/SDK/lib_gnu_434/AVL.lib(XMLs_ProcessData.o)
 .ARM.attributes
                0x00000970       0x10 C:/Program Files/TeliumSDK/SDK 9.8.0/SDK/lib_gnu_434/AVL.lib(XMLs_Common.o)
 .ARM.attributes
                0x00000980       0x10 C:/Program Files/TeliumSDK/SDK 9.8.0/SDK/lib_gnu_434/AVL.lib(XMLs_Deprecated.o)
 .ARM.attributes
                0x00000990       0x10 C:/Program Files/TeliumSDK/SDK 9.8.0/SDK/lib_gnu_434/AVL.lib(XMLs_Parser_Deprecated.o)
 .ARM.attributes
                0x000009a0       0x10 C:/Program Files/TeliumSDK/SDK 9.8.0/SDK/lib_gnu_434/AVL.lib(Internal.o)
 .ARM.attributes
                0x000009b0       0x10 C:/Program Files/TeliumSDK/SDK 9.8.0/SDK/lib_gnu_434/dll_wifi.lib(wifi.o)
 .ARM.attributes
                0x000009c0       0x10 C:/Program Files/TeliumSDK/SDK 9.8.0/SDK/lib_gnu_434/dll_wifi.lib(wifi1.o)
 .ARM.attributes
                0x000009d0       0x10 C:/Program Files/TeliumSDK/SDK 9.8.0/SDK/lib_gnu_434/dll_wifi.lib(wifi2.o)
 .ARM.attributes
                0x000009e0       0x10 C:/Program Files/TeliumSDK/SDK 9.8.0/SDK/lib_gnu_434/dll_wifi.lib(wifi3.o)
 .ARM.attributes
                0x000009f0       0x10 C:/Program Files/TeliumSDK/SDK 9.8.0/SDK/lib_gnu_434/dll_wifi.lib(wifi4.o)
 .ARM.attributes
                0x00000a00       0x10 C:/Program Files/TeliumSDK/SDK 9.8.0/SDK/lib_gnu_434/dll_wifi.lib(wifi5.o)
 .ARM.attributes
                0x00000a10       0x10 C:/Program Files/TeliumSDK/SDK 9.8.0/SDK/lib_gnu_434/dll_wifi.lib(wifi6.o)
 .ARM.attributes
                0x00000a20       0x10 C:/Program Files/TeliumSDK/SDK 9.8.0/SDK/lib_gnu_434/dll_wifi.lib(wifi7.o)
 .ARM.attributes
                0x00000a30       0x10 C:/Program Files/TeliumSDK/SDK 9.8.0/SDK/lib_gnu_434/dll_wifi.lib(wifi8.o)
 .ARM.attributes
                0x00000a40       0x10 C:/Program Files/TeliumSDK/SDK 9.8.0/SDK/lib_gnu_434/dll_wifi.lib(wifi9.o)
 .ARM.attributes
                0x00000a50       0x10 C:/Program Files/TeliumSDK/SDK 9.8.0/SDK/lib_gnu_434/dll_wifi.lib(wifi10.o)
 .ARM.attributes
                0x00000a60       0x10 C:/Program Files/TeliumSDK/SDK 9.8.0/SDK/lib_gnu_434/dll_wifi.lib(wifi11.o)
 .ARM.attributes
                0x00000a70       0x10 C:/Program Files/TeliumSDK/SDK 9.8.0/SDK/lib_gnu_434/dll_wifi.lib(wifi12.o)
 .ARM.attributes
                0x00000a80       0x10 C:/Program Files/TeliumSDK/SDK 9.8.0/SDK/lib_gnu_434/dll_wifi.lib(wifi13.o)
 .ARM.attributes
                0x00000a90       0x10 C:/Program Files/TeliumSDK/SDK 9.8.0/SDK/lib_gnu_434/dll_wifi.lib(wifi14.o)
 .ARM.attributes
                0x00000aa0       0x10 C:/Program Files/TeliumSDK/SDK 9.8.0/SDK/lib_gnu_434/dll_wifi.lib(wifi15.o)
 .ARM.attributes
                0x00000ab0       0x10 C:/Program Files/TeliumSDK/SDK 9.8.0/SDK/lib_gnu_434/dll_wifi.lib(wifi16.o)
 .ARM.attributes
                0x00000ac0       0x10 C:/Program Files/TeliumSDK/SDK 9.8.0/SDK/lib_gnu_434/dll_wifi.lib(wifi17.o)
 .ARM.attributes
                0x00000ad0       0x10 C:/Program Files/TeliumSDK/SDK 9.8.0/SDK/lib_gnu_434/dll_wifi.lib(wifi18.o)
 .ARM.attributes
                0x00000ae0       0x10 C:/Program Files/TeliumSDK/SDK 9.8.0/SDK/lib_gnu_434/dll_wifi.lib(wifi19.o)
 .ARM.attributes
                0x00000af0       0x10 C:/Program Files/TeliumSDK/SDK 9.8.0/SDK/lib_gnu_434/dll_wifi.lib(wifi20.o)
 .ARM.attributes
                0x00000b00       0x10 C:/Program Files/TeliumSDK/SDK 9.8.0/SDK/lib_gnu_434/dll_wifi.lib(wifi21.o)
 .ARM.attributes
                0x00000b10       0x10 C:/Program Files/TeliumSDK/SDK 9.8.0/SDK/lib_gnu_434/dll_wifi.lib(wifi22.o)
 .ARM.attributes
                0x00000b20       0x10 C:/Program Files/TeliumSDK/SDK 9.8.0/SDK/lib_gnu_434/dll_wifi.lib(wifi23.o)
 .ARM.attributes
                0x00000b30       0x10 C:/Program Files/TeliumSDK/SDK 9.8.0/SDK/lib_gnu_434/dll_wifi.lib(wifi24.o)
 .ARM.attributes
                0x00000b40       0x10 C:/Program Files/TeliumSDK/SDK 9.8.0/SDK/lib_gnu_434/dll_wifi.lib(wifi25.o)
 .ARM.attributes
                0x00000b50       0x10 C:/Program Files/TeliumSDK/SDK 9.8.0/SDK/lib_gnu_434/dll_wifi.lib(wifi26.o)
 .ARM.attributes
                0x00000b60       0x10 C:/Program Files/TeliumSDK/SDK 9.8.0/SDK/lib_gnu_434/dll_wifi.lib(wifi27.o)
 .ARM.attributes
                0x00000b70       0x10 C:/Program Files/TeliumSDK/SDK 9.8.0/SDK/lib_gnu_434/dll_wifi.lib(wifi28.o)
 .ARM.attributes
                0x00000b80       0x10 C:/Program Files/TeliumSDK/SDK 9.8.0/SDK/lib_gnu_434/dll_wifi.lib(wifi29.o)
 .ARM.attributes
                0x00000b90       0x10 C:/Program Files/TeliumSDK/SDK 9.8.0/SDK/lib_gnu_434/dll_wifi.lib(wifi30.o)
 .ARM.attributes
                0x00000ba0       0x10 C:/Program Files/TeliumSDK/SDK 9.8.0/SDK/lib_gnu_434/dll_wifi.lib(wifi31.o)
 .ARM.attributes
                0x00000bb0       0x10 C:/Program Files/TeliumSDK/SDK 9.8.0/SDK/lib_gnu_434/dll_wifi.lib(wifi32.o)
 .ARM.attributes
                0x00000bc0       0x10 C:/Program Files/TeliumSDK/SDK 9.8.0/SDK/lib_gnu_434/dll_wifi.lib(wifi33.o)
 .ARM.attributes
                0x00000bd0       0x10 C:/Program Files/TeliumSDK/SDK 9.8.0/SDK/lib_gnu_434/dll_wifi.lib(wifi34.o)
 .ARM.attributes
                0x00000be0       0x10 C:/Program Files/TeliumSDK/SDK 9.8.0/SDK/lib_gnu_434/dll_wifi.lib(wifi35.o)
 .ARM.attributes
                0x00000bf0       0x10 C:/Program Files/TeliumSDK/SDK 9.8.0/SDK/lib_gnu_434/trap.lib(trap_13C1_trace.o)
 .ARM.attributes
                0x00000c00       0x10 C:/Program Files/Ingenico/IngeDev_7/plugins/com.ingenico.ingedev.telium.bin.win32.gnuarm.v434_7.16.0.6/os/win32/GNUARM/4.3.4/arm-elf/lib/thumb/soft/interwork/libc.a(lib_a-memcmp.o)
 .ARM.attributes
                0x00000c10       0x10 C:/Program Files/Ingenico/IngeDev_7/plugins/com.ingenico.ingedev.telium.bin.win32.gnuarm.v434_7.16.0.6/os/win32/GNUARM/4.3.4/arm-elf/lib/thumb/soft/interwork/libc.a(lib_a-memcpy.o)
 .ARM.attributes
                0x00000c20       0x10 C:/Program Files/Ingenico/IngeDev_7/plugins/com.ingenico.ingedev.telium.bin.win32.gnuarm.v434_7.16.0.6/os/win32/GNUARM/4.3.4/arm-elf/lib/thumb/soft/interwork/libc.a(lib_a-memmove.o)
 .ARM.attributes
                0x00000c30       0x10 C:/Program Files/Ingenico/IngeDev_7/plugins/com.ingenico.ingedev.telium.bin.win32.gnuarm.v434_7.16.0.6/os/win32/GNUARM/4.3.4/arm-elf/lib/thumb/soft/interwork/libc.a(lib_a-memset.o)
 .ARM.attributes
                0x00000c40       0x10 C:/Program Files/Ingenico/IngeDev_7/plugins/com.ingenico.ingedev.telium.bin.win32.gnuarm.v434_7.16.0.6/os/win32/GNUARM/4.3.4/arm-elf/lib/thumb/soft/interwork/libc.a(lib_a-snprintf.o)
 .ARM.attributes
                0x00000c50       0x10 C:/Program Files/Ingenico/IngeDev_7/plugins/com.ingenico.ingedev.telium.bin.win32.gnuarm.v434_7.16.0.6/os/win32/GNUARM/4.3.4/arm-elf/lib/thumb/soft/interwork/libc.a(lib_a-strcat.o)
 .ARM.attributes
                0x00000c60       0x10 C:/Program Files/Ingenico/IngeDev_7/plugins/com.ingenico.ingedev.telium.bin.win32.gnuarm.v434_7.16.0.6/os/win32/GNUARM/4.3.4/arm-elf/lib/thumb/soft/interwork/libc.a(lib_a-strchr.o)
 .ARM.attributes
                0x00000c70       0x10 C:/Program Files/Ingenico/IngeDev_7/plugins/com.ingenico.ingedev.telium.bin.win32.gnuarm.v434_7.16.0.6/os/win32/GNUARM/4.3.4/arm-elf/lib/thumb/soft/interwork/libc.a(lib_a-strcmp.o)
 .ARM.attributes
                0x00000c80       0x10 C:/Program Files/Ingenico/IngeDev_7/plugins/com.ingenico.ingedev.telium.bin.win32.gnuarm.v434_7.16.0.6/os/win32/GNUARM/4.3.4/arm-elf/lib/thumb/soft/interwork/libc.a(lib_a-strcpy.o)
 .ARM.attributes
                0x00000c90       0x10 C:/Program Files/Ingenico/IngeDev_7/plugins/com.ingenico.ingedev.telium.bin.win32.gnuarm.v434_7.16.0.6/os/win32/GNUARM/4.3.4/arm-elf/lib/thumb/soft/interwork/libc.a(lib_a-strlen.o)
 .ARM.attributes
                0x00000ca0       0x10 C:/Program Files/Ingenico/IngeDev_7/plugins/com.ingenico.ingedev.telium.bin.win32.gnuarm.v434_7.16.0.6/os/win32/GNUARM/4.3.4/arm-elf/lib/thumb/soft/interwork/libc.a(lib_a-strncat.o)
 .ARM.attributes
                0x00000cb0       0x10 C:/Program Files/Ingenico/IngeDev_7/plugins/com.ingenico.ingedev.telium.bin.win32.gnuarm.v434_7.16.0.6/os/win32/GNUARM/4.3.4/arm-elf/lib/thumb/soft/interwork/libc.a(lib_a-strncpy.o)
 .ARM.attributes
                0x00000cc0       0x10 C:/Program Files/Ingenico/IngeDev_7/plugins/com.ingenico.ingedev.telium.bin.win32.gnuarm.v434_7.16.0.6/os/win32/GNUARM/4.3.4/arm-elf/lib/thumb/soft/interwork/libc.a(lib_a-strstr.o)
 .ARM.attributes
                0x00000cd0       0x10 C:/Program Files/Ingenico/IngeDev_7/plugins/com.ingenico.ingedev.telium.bin.win32.gnuarm.v434_7.16.0.6/os/win32/GNUARM/4.3.4/arm-elf/lib/thumb/soft/interwork/libc.a(lib_a-strtok.o)
 .ARM.attributes
                0x00000ce0       0x10 C:/Program Files/Ingenico/IngeDev_7/plugins/com.ingenico.ingedev.telium.bin.win32.gnuarm.v434_7.16.0.6/os/win32/GNUARM/4.3.4/arm-elf/lib/thumb/soft/interwork/libc.a(lib_a-strtok_r.o)
 .ARM.attributes
                0x00000cf0       0x10 C:/Program Files/Ingenico/IngeDev_7/plugins/com.ingenico.ingedev.telium.bin.win32.gnuarm.v434_7.16.0.6/os/win32/GNUARM/4.3.4/arm-elf/lib/thumb/soft/interwork/libc.a(lib_a-strtoul.o)
 .ARM.attributes
                0x00000d00       0x10 C:/Program Files/Ingenico/IngeDev_7/plugins/com.ingenico.ingedev.telium.bin.win32.gnuarm.v434_7.16.0.6/os/win32/GNUARM/4.3.4/arm-elf/lib/thumb/soft/interwork/libc.a(lib_a-svfprintf.o)
 .ARM.attributes
                0x00000d10       0x10 C:/Program Files/Ingenico/IngeDev_7/plugins/com.ingenico.ingedev.telium.bin.win32.gnuarm.v434_7.16.0.6/os/win32/GNUARM/4.3.4/arm-elf/lib/thumb/soft/interwork/libc.a(lib_a-ctype_.o)
 .ARM.attributes
                0x00000d20       0x10 C:/Program Files/Ingenico/IngeDev_7/plugins/com.ingenico.ingedev.telium.bin.win32.gnuarm.v434_7.16.0.6/os/win32/GNUARM/4.3.4/arm-elf/lib/thumb/soft/interwork/libc.a(lib_a-dtoa.o)
 .ARM.attributes
                0x00000d30       0x10 C:/Program Files/Ingenico/IngeDev_7/plugins/com.ingenico.ingedev.telium.bin.win32.gnuarm.v434_7.16.0.6/os/win32/GNUARM/4.3.4/arm-elf/lib/thumb/soft/interwork/libc.a(lib_a-impure.o)
 .ARM.attributes
                0x00000d40       0x10 C:/Program Files/Ingenico/IngeDev_7/plugins/com.ingenico.ingedev.telium.bin.win32.gnuarm.v434_7.16.0.6/os/win32/GNUARM/4.3.4/arm-elf/lib/thumb/soft/interwork/libc.a(lib_a-locale.o)
 .ARM.attributes
                0x00000d50       0x10 C:/Program Files/Ingenico/IngeDev_7/plugins/com.ingenico.ingedev.telium.bin.win32.gnuarm.v434_7.16.0.6/os/win32/GNUARM/4.3.4/arm-elf/lib/thumb/soft/interwork/libc.a(lib_a-memchr.o)
 .ARM.attributes
                0x00000d60       0x10 C:/Program Files/Ingenico/IngeDev_7/plugins/com.ingenico.ingedev.telium.bin.win32.gnuarm.v434_7.16.0.6/os/win32/GNUARM/4.3.4/arm-elf/lib/thumb/soft/interwork/libc.a(lib_a-mprec.o)
 .ARM.attributes
                0x00000d70       0x10 C:/Program Files/Ingenico/IngeDev_7/plugins/com.ingenico.ingedev.telium.bin.win32.gnuarm.v434_7.16.0.6/os/win32/GNUARM/4.3.4/arm-elf/lib/thumb/soft/interwork/libc.a(lib_a-s_fpclassify.o)
 .ARM.attributes
                0x00000d80       0x10 C:/Program Files/Ingenico/IngeDev_7/plugins/com.ingenico.ingedev.telium.bin.win32.gnuarm.v434_7.16.0.6/os/win32/GNUARM/4.3.4/arm-elf/lib/thumb/soft/interwork/libc.a(lib_a-svfiprintf.o)
 .ARM.attributes
                0x00000d90       0x10 C:/Program Files/Ingenico/IngeDev_7/plugins/com.ingenico.ingedev.telium.bin.win32.gnuarm.v434_7.16.0.6/os/win32/GNUARM/4.3.4/lib/gcc/arm-elf/4.3.4/thumb/soft/interwork/libgcc.a(_udivsi3.o)
 .ARM.attributes
                0x00000da0       0x10 C:/Program Files/Ingenico/IngeDev_7/plugins/com.ingenico.ingedev.telium.bin.win32.gnuarm.v434_7.16.0.6/os/win32/GNUARM/4.3.4/lib/gcc/arm-elf/4.3.4/thumb/soft/interwork/libgcc.a(_divsi3.o)
 .ARM.attributes
                0x00000db0       0x10 C:/Program Files/Ingenico/IngeDev_7/plugins/com.ingenico.ingedev.telium.bin.win32.gnuarm.v434_7.16.0.6/os/win32/GNUARM/4.3.4/lib/gcc/arm-elf/4.3.4/thumb/soft/interwork/libgcc.a(_umodsi3.o)
 .ARM.attributes
                0x00000dc0       0x10 C:/Program Files/Ingenico/IngeDev_7/plugins/com.ingenico.ingedev.telium.bin.win32.gnuarm.v434_7.16.0.6/os/win32/GNUARM/4.3.4/lib/gcc/arm-elf/4.3.4/thumb/soft/interwork/libgcc.a(_modsi3.o)
 .ARM.attributes
                0x00000dd0       0x10 C:/Program Files/Ingenico/IngeDev_7/plugins/com.ingenico.ingedev.telium.bin.win32.gnuarm.v434_7.16.0.6/os/win32/GNUARM/4.3.4/lib/gcc/arm-elf/4.3.4/thumb/soft/interwork/libgcc.a(_dvmd_tls.o)
 .ARM.attributes
                0x00000de0       0x10 C:/Program Files/Ingenico/IngeDev_7/plugins/com.ingenico.ingedev.telium.bin.win32.gnuarm.v434_7.16.0.6/os/win32/GNUARM/4.3.4/lib/gcc/arm-elf/4.3.4/thumb/soft/interwork/libgcc.a(_addsubdf3.o)
 .ARM.attributes
                0x00000df0       0x10 C:/Program Files/Ingenico/IngeDev_7/plugins/com.ingenico.ingedev.telium.bin.win32.gnuarm.v434_7.16.0.6/os/win32/GNUARM/4.3.4/lib/gcc/arm-elf/4.3.4/thumb/soft/interwork/libgcc.a(_muldivdf3.o)
 .ARM.attributes
                0x00000e00       0x10 C:/Program Files/Ingenico/IngeDev_7/plugins/com.ingenico.ingedev.telium.bin.win32.gnuarm.v434_7.16.0.6/os/win32/GNUARM/4.3.4/lib/gcc/arm-elf/4.3.4/thumb/soft/interwork/libgcc.a(_cmpdf2.o)
 .ARM.attributes
                0x00000e10       0x10 C:/Program Files/Ingenico/IngeDev_7/plugins/com.ingenico.ingedev.telium.bin.win32.gnuarm.v434_7.16.0.6/os/win32/GNUARM/4.3.4/lib/gcc/arm-elf/4.3.4/thumb/soft/interwork/libgcc.a(_fixdfsi.o)

.debug_ranges   0x00000000      0x178
 .debug_ranges  0x00000000       0x18 Obj/GNU_ARM_DEBUG/Boleto.o
 .debug_ranges  0x00000018       0x18 Obj/GNU_ARM_DEBUG/Menus.o
 .debug_ranges  0x00000030       0xa0 C:/Program Files/Ingenico/IngeDev_7/plugins/com.ingenico.ingedev.telium.bin.win32.gnuarm.v434_7.16.0.6/os/win32/GNUARM/4.3.4/arm-elf/lib/thumb/soft/interwork/libc.a(lib_a-svfprintf.o)
 .debug_ranges  0x000000d0       0x60 C:/Program Files/Ingenico/IngeDev_7/plugins/com.ingenico.ingedev.telium.bin.win32.gnuarm.v434_7.16.0.6/os/win32/GNUARM/4.3.4/arm-elf/lib/thumb/soft/interwork/libc.a(lib_a-mprec.o)
 .debug_ranges  0x00000130       0x18 C:/Program Files/Ingenico/IngeDev_7/plugins/com.ingenico.ingedev.telium.bin.win32.gnuarm.v434_7.16.0.6/os/win32/GNUARM/4.3.4/arm-elf/lib/thumb/soft/interwork/libc.a(lib_a-s_fpclassify.o)
 .debug_ranges  0x00000148       0x30 C:/Program Files/Ingenico/IngeDev_7/plugins/com.ingenico.ingedev.telium.bin.win32.gnuarm.v434_7.16.0.6/os/win32/GNUARM/4.3.4/arm-elf/lib/thumb/soft/interwork/libc.a(lib_a-svfiprintf.o)
